
build/output.elf:     file format elf32-littlearm


Disassembly of section .init:

00008000 <_start>:
    8000:	ea249335 	b	92ccdc <main>

Disassembly of section .text:

0092c16c <Move>:
  92c16c:	e92d47f0 	push	{r4, r5, r6, r7, r8, r9, sl, lr}
  92c170:	e59f413c 	ldr	r4, [pc, #316]	; 92c2b4 <storeItBack+0x28>
  92c174:	e59f013c 	ldr	r0, [pc, #316]	; 92c2b8 <storeItBack+0x2c>
  92c178:	e280000c 	add	r0, r0, #12
  92c17c:	e5909000 	ldr	r9, [r0]
  92c180:	e2499003 	sub	r9, r9, #3
  92c184:	e3a07001 	mov	r7, #1
  92c188:	e3a00000 	mov	r0, #0
  92c18c:	eb0001c4 	bl	92c8a4 <calculateOffset>
  92c190:	e5905000 	ldr	r5, [r0]
  92c194:	e5906004 	ldr	r6, [r0, #4]
  92c198:	e1a00005 	mov	r0, r5
  92c19c:	e1a01006 	mov	r1, r6
  92c1a0:	e59f2114 	ldr	r2, [pc, #276]	; 92c2bc <storeItBack+0x30>
  92c1a4:	eb000458 	bl	92d30c <DrawPhoto>

0092c1a8 <sketch>:
  92c1a8:	e1570009 	cmp	r7, r9
  92c1ac:	8a00000a 	bhi	92c1dc <finish>
  92c1b0:	e1a00007 	mov	r0, r7
  92c1b4:	eb0001ba 	bl	92c8a4 <calculateOffset>
  92c1b8:	e1a08000 	mov	r8, r0
  92c1bc:	e5985000 	ldr	r5, [r8]
  92c1c0:	e5986004 	ldr	r6, [r8, #4]
  92c1c4:	e1a00005 	mov	r0, r5
  92c1c8:	e1a01006 	mov	r1, r6
  92c1cc:	e59f20ec 	ldr	r2, [pc, #236]	; 92c2c0 <storeItBack+0x34>
  92c1d0:	eb00044d 	bl	92d30c <DrawPhoto>
  92c1d4:	e2877001 	add	r7, r7, #1
  92c1d8:	eafffff2 	b	92c1a8 <sketch>

0092c1dc <finish>:
  92c1dc:	e1a00007 	mov	r0, r7
  92c1e0:	eb0001af 	bl	92c8a4 <calculateOffset>
  92c1e4:	e5905000 	ldr	r5, [r0]
  92c1e8:	e5906004 	ldr	r6, [r0, #4]
  92c1ec:	e1a00005 	mov	r0, r5
  92c1f0:	e1a01006 	mov	r1, r6
  92c1f4:	e59f20c8 	ldr	r2, [pc, #200]	; 92c2c4 <storeItBack+0x38>
  92c1f8:	eb000443 	bl	92d30c <DrawPhoto>
  92c1fc:	e2870001 	add	r0, r7, #1
  92c200:	eb0001a7 	bl	92c8a4 <calculateOffset>
  92c204:	e5905000 	ldr	r5, [r0]
  92c208:	e5906004 	ldr	r6, [r0, #4]
  92c20c:	e1a00005 	mov	r0, r5
  92c210:	e1a01006 	mov	r1, r6
  92c214:	e59f20ac 	ldr	r2, [pc, #172]	; 92c2c8 <storeItBack+0x3c>
  92c218:	eb000469 	bl	92d3c4 <DrawBox>
  92c21c:	e8bd47f0 	pop	{r4, r5, r6, r7, r8, r9, sl, lr}
  92c220:	e12fff1e 	bx	lr

0092c224 <insertBody>:
  92c224:	e92d47f0 	push	{r4, r5, r6, r7, r8, r9, sl, lr}
  92c228:	e59f0088 	ldr	r0, [pc, #136]	; 92c2b8 <storeItBack+0x2c>
  92c22c:	e590400c 	ldr	r4, [r0, #12]
  92c230:	e1a00004 	mov	r0, r4
  92c234:	eb00019a 	bl	92c8a4 <calculateOffset>
  92c238:	e1a05000 	mov	r5, r0
  92c23c:	e2440001 	sub	r0, r4, #1
  92c240:	eb000197 	bl	92c8a4 <calculateOffset>
  92c244:	e1a04000 	mov	r4, r0
  92c248:	e5956000 	ldr	r6, [r5]
  92c24c:	e5957004 	ldr	r7, [r5, #4]
  92c250:	e5948000 	ldr	r8, [r4]
  92c254:	e5949004 	ldr	r9, [r4, #4]
  92c258:	e1560008 	cmp	r6, r8
  92c25c:	1a000005 	bne	92c278 <yCoordinates>
  92c260:	e1570009 	cmp	r7, r9
  92c264:	ba000001 	blt	92c270 <decrementY>
  92c268:	e2877020 	add	r7, r7, #32
  92c26c:	ea000006 	b	92c28c <storeItBack>

0092c270 <decrementY>:
  92c270:	e2477020 	sub	r7, r7, #32
  92c274:	ea000004 	b	92c28c <storeItBack>

0092c278 <yCoordinates>:
  92c278:	e1560008 	cmp	r6, r8
  92c27c:	ba000001 	blt	92c288 <decrementX>
  92c280:	e2866020 	add	r6, r6, #32
  92c284:	ea000000 	b	92c28c <storeItBack>

0092c288 <decrementX>:
  92c288:	e2466020 	sub	r6, r6, #32

0092c28c <storeItBack>:
  92c28c:	e59f0024 	ldr	r0, [pc, #36]	; 92c2b8 <storeItBack+0x2c>
  92c290:	e590400c 	ldr	r4, [r0, #12]
  92c294:	e2844001 	add	r4, r4, #1
  92c298:	e580400c 	str	r4, [r0, #12]
  92c29c:	e1a00004 	mov	r0, r4
  92c2a0:	eb00017f 	bl	92c8a4 <calculateOffset>
  92c2a4:	e5806000 	str	r6, [r0]
  92c2a8:	e5807004 	str	r7, [r0, #4]
  92c2ac:	e8bd47f0 	pop	{r4, r5, r6, r7, r8, r9, sl, lr}
  92c2b0:	e12fff1e 	bx	lr
  92c2b4:	000090b4 	.word	0x000090b4
  92c2b8:	000098cc 	.word	0x000098cc
  92c2bc:	0062016c 	.word	0x0062016c
  92c2c0:	0062096c 	.word	0x0062096c
  92c2c4:	0062116c 	.word	0x0062116c
  92c2c8:	000097ff 	.word	0x000097ff

0092c2cc <r0ndomNumber>:
  92c2cc:	e92d47f0 	push	{r4, r5, r6, r7, r8, r9, sl, lr}
  92c2d0:	e59f21c8 	ldr	r2, [pc, #456]	; 92c4a0 <getLive+0x14>
  92c2d4:	e5924000 	ldr	r4, [r2]
  92c2d8:	e3a05013 	mov	r5, #19
  92c2dc:	e3a0601d 	mov	r6, #29
  92c2e0:	e1a00004 	mov	r0, r4
  92c2e4:	e1a01005 	mov	r1, r5
  92c2e8:	eb00000b 	bl	92c31c <division>
  92c2ec:	e1a07000 	mov	r7, r0
  92c2f0:	e2877001 	add	r7, r7, #1
  92c2f4:	e59f21a4 	ldr	r2, [pc, #420]	; 92c4a0 <getLive+0x14>
  92c2f8:	e5924000 	ldr	r4, [r2]
  92c2fc:	e1a00004 	mov	r0, r4
  92c300:	e1a01006 	mov	r1, r6
  92c304:	eb000004 	bl	92c31c <division>
  92c308:	e1a01000 	mov	r1, r0
  92c30c:	e2811001 	add	r1, r1, #1
  92c310:	e1a00007 	mov	r0, r7
  92c314:	e8bd47f0 	pop	{r4, r5, r6, r7, r8, r9, sl, lr}
  92c318:	e12fff1e 	bx	lr

0092c31c <division>:
  92c31c:	e92d47f0 	push	{r4, r5, r6, r7, r8, r9, sl, lr}
  92c320:	e3a04001 	mov	r4, #1

0092c324 <Div1>:
  92c324:	e3510102 	cmp	r1, #-2147483648	; 0x80000000
  92c328:	31510000 	cmpcc	r1, r0
  92c32c:	31a01081 	lslcc	r1, r1, #1
  92c330:	31a04084 	lslcc	r4, r4, #1
  92c334:	3afffffa 	bcc	92c324 <Div1>
  92c338:	e3a02000 	mov	r2, #0

0092c33c <Div2>:
  92c33c:	e1500001 	cmp	r0, r1
  92c340:	20400001 	subcs	r0, r0, r1
  92c344:	20822004 	addcs	r2, r2, r4
  92c348:	e1b040a4 	lsrs	r4, r4, #1
  92c34c:	11a010a1 	lsrne	r1, r1, #1
  92c350:	1afffff9 	bne	92c33c <Div2>
  92c354:	e8bd47f0 	pop	{r4, r5, r6, r7, r8, r9, sl, lr}
  92c358:	e12fff1e 	bx	lr

0092c35c <r0ndomPhoto>:
  92c35c:	e92d47f0 	push	{r4, r5, r6, r7, r8, r9, sl, lr}
  92c360:	e1a0a000 	mov	sl, r0
  92c364:	e3a04020 	mov	r4, #32

0092c368 <recalc>:
  92c368:	ebffffd7 	bl	92c2cc <r0ndomNumber>
  92c36c:	e0050490 	mul	r5, r0, r4
  92c370:	e0060491 	mul	r6, r1, r4
  92c374:	e1a00005 	mov	r0, r5
  92c378:	e1a01006 	mov	r1, r6
  92c37c:	e3a02000 	mov	r2, #0
  92c380:	eb000424 	bl	92d418 <CheckBox>
  92c384:	e3500001 	cmp	r0, #1
  92c388:	0afffff6 	beq	92c368 <recalc>

0092c38c <nextD>:
  92c38c:	e1a00005 	mov	r0, r5
  92c390:	e1a01006 	mov	r1, r6
  92c394:	e1a0200a 	mov	r2, sl
  92c398:	eb0003db 	bl	92d30c <DrawPhoto>
  92c39c:	e8bd47f0 	pop	{r4, r5, r6, r7, r8, r9, sl, lr}
  92c3a0:	e12fff1e 	bx	lr

0092c3a4 <printCandyLives>:
  92c3a4:	e92d47f0 	push	{r4, r5, r6, r7, r8, r9, sl, lr}
  92c3a8:	eb00002d 	bl	92c464 <getScore>
  92c3ac:	e3500000 	cmp	r0, #0
  92c3b0:	b3a00000 	movlt	r0, #0
  92c3b4:	e3a01c02 	mov	r1, #512	; 0x200
  92c3b8:	e3a02e2e 	mov	r2, #736	; 0x2e0
  92c3bc:	eb000008 	bl	92c3e4 <printNum>
  92c3c0:	e8bd47f0 	pop	{r4, r5, r6, r7, r8, r9, sl, lr}
  92c3c4:	e12fff1e 	bx	lr

0092c3c8 <printSnakeLives>:
  92c3c8:	e92d47f0 	push	{r4, r5, r6, r7, r8, r9, sl, lr}
  92c3cc:	eb00002e 	bl	92c48c <getLive>
  92c3d0:	e3a01c02 	mov	r1, #512	; 0x200
  92c3d4:	e3a02d0b 	mov	r2, #704	; 0x2c0
  92c3d8:	eb000001 	bl	92c3e4 <printNum>
  92c3dc:	e8bd47f0 	pop	{r4, r5, r6, r7, r8, r9, sl, lr}
  92c3e0:	e12fff1e 	bx	lr

0092c3e4 <printNum>:
  92c3e4:	e92d47f0 	push	{r4, r5, r6, r7, r8, r9, sl, lr}
  92c3e8:	e1a06001 	mov	r6, r1
  92c3ec:	e1a07002 	mov	r7, r2
  92c3f0:	e3a0400a 	mov	r4, #10
  92c3f4:	e1a01004 	mov	r1, r4
  92c3f8:	ebffffc7 	bl	92c31c <division>
  92c3fc:	e1a04002 	mov	r4, r2
  92c400:	e1a05000 	mov	r5, r0
  92c404:	e3a08004 	mov	r8, #4
  92c408:	e0040498 	mul	r4, r8, r4
  92c40c:	e0050598 	mul	r5, r8, r5
  92c410:	e59f008c 	ldr	r0, [pc, #140]	; 92c4a4 <getLive+0x18>
  92c414:	e0800004 	add	r0, r0, r4
  92c418:	e5904000 	ldr	r4, [r0]
  92c41c:	e1a00006 	mov	r0, r6
  92c420:	e1a01007 	mov	r1, r7
  92c424:	e1a02004 	mov	r2, r4
  92c428:	eb0003b7 	bl	92d30c <DrawPhoto>

0092c42c <Check>:
  92c42c:	e59f0070 	ldr	r0, [pc, #112]	; 92c4a4 <getLive+0x18>
  92c430:	e0800005 	add	r0, r0, r5
  92c434:	e5905000 	ldr	r5, [r0]
  92c438:	e2860020 	add	r0, r6, #32
  92c43c:	e1a01007 	mov	r1, r7
  92c440:	e1a02005 	mov	r2, r5
  92c444:	eb0003b0 	bl	92d30c <DrawPhoto>
  92c448:	e8bd47f0 	pop	{r4, r5, r6, r7, r8, r9, sl, lr}
  92c44c:	e12fff1e 	bx	lr

0092c450 <updateScore>:
  92c450:	e92d47f0 	push	{r4, r5, r6, r7, r8, r9, sl, lr}
  92c454:	e59f404c 	ldr	r4, [pc, #76]	; 92c4a8 <getLive+0x1c>
  92c458:	e5840000 	str	r0, [r4]
  92c45c:	e8bd47f0 	pop	{r4, r5, r6, r7, r8, r9, sl, lr}
  92c460:	e12fff1e 	bx	lr

0092c464 <getScore>:
  92c464:	e92d47f0 	push	{r4, r5, r6, r7, r8, r9, sl, lr}
  92c468:	e59f4038 	ldr	r4, [pc, #56]	; 92c4a8 <getLive+0x1c>
  92c46c:	e5940000 	ldr	r0, [r4]
  92c470:	e8bd47f0 	pop	{r4, r5, r6, r7, r8, r9, sl, lr}
  92c474:	e12fff1e 	bx	lr

0092c478 <updateLive>:
  92c478:	e92d47f0 	push	{r4, r5, r6, r7, r8, r9, sl, lr}
  92c47c:	e59f4028 	ldr	r4, [pc, #40]	; 92c4ac <getLive+0x20>
  92c480:	e5840000 	str	r0, [r4]
  92c484:	e8bd47f0 	pop	{r4, r5, r6, r7, r8, r9, sl, lr}
  92c488:	e12fff1e 	bx	lr

0092c48c <getLive>:
  92c48c:	e92d47f0 	push	{r4, r5, r6, r7, r8, r9, sl, lr}
  92c490:	e59f4014 	ldr	r4, [pc, #20]	; 92c4ac <getLive+0x20>
  92c494:	e5940000 	ldr	r0, [r4]
  92c498:	e8bd47f0 	pop	{r4, r5, r6, r7, r8, r9, sl, lr}
  92c49c:	e12fff1e 	bx	lr
  92c4a0:	20003004 	.word	0x20003004
  92c4a4:	00611144 	.word	0x00611144
  92c4a8:	000098c0 	.word	0x000098c0
  92c4ac:	000098c4 	.word	0x000098c4

0092c4b0 <InitFrameBuffer>:
  92c4b0:	e59f205c 	ldr	r2, [pc, #92]	; 92c514 <pointerWaitLoop$+0x18>
  92c4b4:	e59f305c 	ldr	r3, [pc, #92]	; 92c518 <pointerWaitLoop$+0x1c>

0092c4b8 <mBoxFullLoop$>:
  92c4b8:	e5920018 	ldr	r0, [r2, #24]
  92c4bc:	e3100102 	tst	r0, #-2147483648	; 0x80000000
  92c4c0:	1afffffc 	bne	92c4b8 <mBoxFullLoop$>
  92c4c4:	e2830101 	add	r0, r3, #1073741824	; 0x40000000
  92c4c8:	e3800001 	orr	r0, r0, #1
  92c4cc:	e5820020 	str	r0, [r2, #32]

0092c4d0 <mBoxEmptyLoop$>:
  92c4d0:	e5920018 	ldr	r0, [r2, #24]
  92c4d4:	e3100101 	tst	r0, #1073741824	; 0x40000000
  92c4d8:	1afffffc 	bne	92c4d0 <mBoxEmptyLoop$>
  92c4dc:	e5920000 	ldr	r0, [r2]
  92c4e0:	e200100f 	and	r1, r0, #15
  92c4e4:	e3310001 	teq	r1, #1
  92c4e8:	1afffff8 	bne	92c4d0 <mBoxEmptyLoop$>
  92c4ec:	e3c0100f 	bic	r1, r0, #15
  92c4f0:	e3310000 	teq	r1, #0
  92c4f4:	13a00000 	movne	r0, #0
  92c4f8:	112fff1e 	bxne	lr

0092c4fc <pointerWaitLoop$>:
  92c4fc:	e5930020 	ldr	r0, [r3, #32]
  92c500:	e3300000 	teq	r0, #0
  92c504:	0afffffc 	beq	92c4fc <pointerWaitLoop$>
  92c508:	e59f300c 	ldr	r3, [pc, #12]	; 92c51c <pointerWaitLoop$+0x20>
  92c50c:	e5830000 	str	r0, [r3]
  92c510:	e12fff1e 	bx	lr
  92c514:	2000b880 	.word	0x2000b880
  92c518:	00009080 	.word	0x00009080
  92c51c:	000090b0 	.word	0x000090b0

0092c520 <initGameMap>:
  92c520:	e92d47f0 	push	{r4, r5, r6, r7, r8, r9, sl, lr}

0092c524 <restartAgain>:
  92c524:	eb0002f8 	bl	92d10c <startMenu>

0092c528 <game>:
  92c528:	eb0001f0 	bl	92ccf0 <vid>
  92c52c:	eb0000e3 	bl	92c8c0 <initArr0y>
  92c530:	e59f05c4 	ldr	r0, [pc, #1476]	; 92cafc <doneChecking+0x8>
  92c534:	ebffff88 	bl	92c35c <r0ndomPhoto>
  92c538:	e3a0a000 	mov	sl, #0
  92c53c:	e1a0000a 	mov	r0, sl
  92c540:	ebffffc2 	bl	92c450 <updateScore>
  92c544:	e3a00003 	mov	r0, #3
  92c548:	ebffffca 	bl	92c478 <updateLive>
  92c54c:	ebffff94 	bl	92c3a4 <printCandyLives>
  92c550:	ebffff9c 	bl	92c3c8 <printSnakeLives>
  92c554:	e3a09000 	mov	r9, #0
  92c558:	e59f05a0 	ldr	r0, [pc, #1440]	; 92cb00 <doneChecking+0xc>
  92c55c:	e3a01000 	mov	r1, #0
  92c560:	e5801000 	str	r1, [r0]
  92c564:	e59f0598 	ldr	r0, [pc, #1432]	; 92cb04 <doneChecking+0x10>
  92c568:	e5801000 	str	r1, [r0]
  92c56c:	eb00016e 	bl	92cb2c <initInterrupt>

0092c570 <gameloop>:
  92c570:	eb0003d7 	bl	92d4d4 <Snes>
  92c574:	e1a08000 	mov	r8, r0
  92c578:	e3580004 	cmp	r8, #4
  92c57c:	1a000012 	bne	92c5cc <direct>
  92c580:	eb00031d 	bl	92d1fc <pauseMenu>
  92c584:	e1a07000 	mov	r7, r0
  92c588:	e59f0578 	ldr	r0, [pc, #1400]	; 92cb08 <doneChecking+0x14>
  92c58c:	eb00042d 	bl	92d648 <Wait>
  92c590:	eb000186 	bl	92cbb0 <enableInterrupt>
  92c594:	e3570000 	cmp	r7, #0
  92c598:	1a000001 	bne	92c5a4 <userquit>
  92c59c:	eb00017d 	bl	92cb98 <disableInterrupt>
  92c5a0:	eaffffe0 	b	92c528 <game>

0092c5a4 <userquit>:
  92c5a4:	e3570001 	cmp	r7, #1
  92c5a8:	1a000002 	bne	92c5b8 <checkr2>
  92c5ac:	eb000179 	bl	92cb98 <disableInterrupt>
  92c5b0:	eb0000e9 	bl	92c95c <clearArray>
  92c5b4:	eaffffda 	b	92c524 <restartAgain>

0092c5b8 <checkr2>:
  92c5b8:	e3570002 	cmp	r7, #2
  92c5bc:	1a000002 	bne	92c5cc <direct>
  92c5c0:	eb000244 	bl	92ced8 <DrawLayoutOne>
  92c5c4:	e59f0540 	ldr	r0, [pc, #1344]	; 92cb0c <doneChecking+0x18>
  92c5c8:	eb00041e 	bl	92d648 <Wait>

0092c5cc <direct>:
  92c5cc:	e1a00008 	mov	r0, r8
  92c5d0:	eb000051 	bl	92c71c <getDirection>
  92c5d4:	eb000115 	bl	92ca30 <checkCollision>
  92c5d8:	e1a05001 	mov	r5, r1
  92c5dc:	e1a06000 	mov	r6, r0
  92c5e0:	e1a07002 	mov	r7, r2
  92c5e4:	e3530001 	cmp	r3, #1
  92c5e8:	13a09004 	movne	r9, #4
  92c5ec:	1a00000a 	bne	92c61c <checK>
  92c5f0:	ebffff9b 	bl	92c464 <getScore>
  92c5f4:	e2800005 	add	r0, r0, #5
  92c5f8:	ebffff94 	bl	92c450 <updateScore>
  92c5fc:	ebffff68 	bl	92c3a4 <printCandyLives>
  92c600:	eb00045c 	bl	92d778 <pickValuePack>
  92c604:	e3500001 	cmp	r0, #1
  92c608:	1a000003 	bne	92c61c <checK>
  92c60c:	e1a0000a 	mov	r0, sl
  92c610:	e3a01002 	mov	r1, #2
  92c614:	ebffff40 	bl	92c31c <division>
  92c618:	e1a0a002 	mov	sl, r2

0092c61c <checK>:
  92c61c:	e3550001 	cmp	r5, #1
  92c620:	1a000005 	bne	92c63c <checkForCollision>
  92c624:	ebfffefe 	bl	92c224 <insertBody>
  92c628:	e28aa001 	add	sl, sl, #1
  92c62c:	ebffff8c 	bl	92c464 <getScore>
  92c630:	e2800001 	add	r0, r0, #1
  92c634:	ebffff85 	bl	92c450 <updateScore>
  92c638:	ebffff59 	bl	92c3a4 <printCandyLives>

0092c63c <checkForCollision>:
  92c63c:	e3560001 	cmp	r6, #1
  92c640:	1a000007 	bne	92c664 <noCollision>
  92c644:	eb0000c4 	bl	92c95c <clearArray>
  92c648:	eb00009c 	bl	92c8c0 <initArr0y>
  92c64c:	ebfffec6 	bl	92c16c <Move>
  92c650:	ebffff8d 	bl	92c48c <getLive>
  92c654:	e2400001 	sub	r0, r0, #1
  92c658:	ebffff86 	bl	92c478 <updateLive>
  92c65c:	ebffff59 	bl	92c3c8 <printSnakeLives>
  92c660:	ebffffc2 	bl	92c570 <gameloop>

0092c664 <noCollision>:
  92c664:	e3570001 	cmp	r7, #1
  92c668:	1a000003 	bne	92c67c <checkLose>
  92c66c:	eb0000ba 	bl	92c95c <clearArray>
  92c670:	eb000148 	bl	92cb98 <disableInterrupt>
  92c674:	eb0002d7 	bl	92d1d8 <winner>
  92c678:	eaffffa9 	b	92c524 <restartAgain>

0092c67c <checkLose>:
  92c67c:	ebffff82 	bl	92c48c <getLive>
  92c680:	e3500000 	cmp	r0, #0
  92c684:	1a000003 	bne	92c698 <checkD>
  92c688:	eb0000b3 	bl	92c95c <clearArray>
  92c68c:	eb000141 	bl	92cb98 <disableInterrupt>
  92c690:	eb0002c7 	bl	92d1b4 <loser>
  92c694:	eaffffa2 	b	92c524 <restartAgain>

0092c698 <checkD>:
  92c698:	e59f0464 	ldr	r0, [pc, #1124]	; 92cb04 <doneChecking+0x10>
  92c69c:	e5901000 	ldr	r1, [r0]
  92c6a0:	e3510000 	cmp	r1, #0
  92c6a4:	1a000007 	bne	92c6c8 <checkNext>
  92c6a8:	e35a0019 	cmp	sl, #25
  92c6ac:	1a000005 	bne	92c6c8 <checkNext>
  92c6b0:	e59f044c 	ldr	r0, [pc, #1100]	; 92cb04 <doneChecking+0x10>
  92c6b4:	e3a01001 	mov	r1, #1
  92c6b8:	e5801000 	str	r1, [r0]
  92c6bc:	e59f044c 	ldr	r0, [pc, #1100]	; 92cb10 <doneChecking+0x1c>
  92c6c0:	ebffff25 	bl	92c35c <r0ndomPhoto>
  92c6c4:	e3a0a000 	mov	sl, #0

0092c6c8 <checkNext>:
  92c6c8:	e59f4444 	ldr	r4, [pc, #1092]	; 92cb14 <doneChecking+0x20>
  92c6cc:	e5940030 	ldr	r0, [r4, #48]	; 0x30
  92c6d0:	e5941034 	ldr	r1, [r4, #52]	; 0x34
  92c6d4:	eb0000b4 	bl	92c9ac <shiftArr0y>
  92c6d8:	ebfffea3 	bl	92c16c <Move>
  92c6dc:	e3550001 	cmp	r5, #1
  92c6e0:	1a000008 	bne	92c708 <skipit>
  92c6e4:	e59f0414 	ldr	r0, [pc, #1044]	; 92cb00 <doneChecking+0xc>
  92c6e8:	e5901000 	ldr	r1, [r0]
  92c6ec:	e3510000 	cmp	r1, #0
  92c6f0:	da000002 	ble	92c700 <printCandies>
  92c6f4:	e2411001 	sub	r1, r1, #1
  92c6f8:	e5801000 	str	r1, [r0]
  92c6fc:	ea000001 	b	92c708 <skipit>

0092c700 <printCandies>:
  92c700:	e59f03f4 	ldr	r0, [pc, #1012]	; 92cafc <doneChecking+0x8>
  92c704:	ebffff14 	bl	92c35c <r0ndomPhoto>

0092c708 <skipit>:
  92c708:	e5940008 	ldr	r0, [r4, #8]
  92c70c:	eb0003cd 	bl	92d648 <Wait>
  92c710:	eaffff96 	b	92c570 <gameloop>
  92c714:	e8bd47f0 	pop	{r4, r5, r6, r7, r8, r9, sl, lr}
  92c718:	e12fff1e 	bx	lr

0092c71c <getDirection>:
  92c71c:	e92d47f0 	push	{r4, r5, r6, r7, r8, r9, sl, lr}
  92c720:	e1a04000 	mov	r4, r0
  92c724:	e59f53e8 	ldr	r5, [pc, #1000]	; 92cb14 <doneChecking+0x20>
  92c728:	e1a04000 	mov	r4, r0
  92c72c:	e3a01001 	mov	r1, #1
  92c730:	e3a02000 	mov	r2, #0

0092c734 <button_up>:
  92c734:	e3540005 	cmp	r4, #5
  92c738:	1a00000a 	bne	92c768 <button_down>
  92c73c:	e5953028 	ldr	r3, [r5, #40]	; 0x28
  92c740:	e3530000 	cmp	r3, #0
  92c744:	1a000007 	bne	92c768 <button_down>
  92c748:	e585102c 	str	r1, [r5, #44]	; 0x2c
  92c74c:	e5851018 	str	r1, [r5, #24]
  92c750:	e5852010 	str	r2, [r5, #16]
  92c754:	e5852014 	str	r2, [r5, #20]
  92c758:	e585201c 	str	r2, [r5, #28]
  92c75c:	e5852020 	str	r2, [r5, #32]
  92c760:	e5852024 	str	r2, [r5, #36]	; 0x24
  92c764:	ea000025 	b	92c800 <doneDirection>

0092c768 <button_down>:
  92c768:	e3540006 	cmp	r4, #6
  92c76c:	1a00000a 	bne	92c79c <button_left>
  92c770:	e595302c 	ldr	r3, [r5, #44]	; 0x2c
  92c774:	e3530000 	cmp	r3, #0
  92c778:	1a000007 	bne	92c79c <button_left>
  92c77c:	e5851028 	str	r1, [r5, #40]	; 0x28
  92c780:	e585101c 	str	r1, [r5, #28]
  92c784:	e5852010 	str	r2, [r5, #16]
  92c788:	e5852014 	str	r2, [r5, #20]
  92c78c:	e5852018 	str	r2, [r5, #24]
  92c790:	e5852020 	str	r2, [r5, #32]
  92c794:	e5852024 	str	r2, [r5, #36]	; 0x24
  92c798:	ea000018 	b	92c800 <doneDirection>

0092c79c <button_left>:
  92c79c:	e3540007 	cmp	r4, #7
  92c7a0:	1a00000a 	bne	92c7d0 <button_right>
  92c7a4:	e5953020 	ldr	r3, [r5, #32]
  92c7a8:	e3530000 	cmp	r3, #0
  92c7ac:	1a000007 	bne	92c7d0 <button_right>
  92c7b0:	e5851024 	str	r1, [r5, #36]	; 0x24
  92c7b4:	e5851010 	str	r1, [r5, #16]
  92c7b8:	e5852014 	str	r2, [r5, #20]
  92c7bc:	e5852018 	str	r2, [r5, #24]
  92c7c0:	e585201c 	str	r2, [r5, #28]
  92c7c4:	e5852028 	str	r2, [r5, #40]	; 0x28
  92c7c8:	e585202c 	str	r2, [r5, #44]	; 0x2c
  92c7cc:	ea00000b 	b	92c800 <doneDirection>

0092c7d0 <button_right>:
  92c7d0:	e3540008 	cmp	r4, #8
  92c7d4:	1a000009 	bne	92c800 <doneDirection>
  92c7d8:	e5953024 	ldr	r3, [r5, #36]	; 0x24
  92c7dc:	e3530000 	cmp	r3, #0
  92c7e0:	1a000006 	bne	92c800 <doneDirection>
  92c7e4:	e5851020 	str	r1, [r5, #32]
  92c7e8:	e5851014 	str	r1, [r5, #20]
  92c7ec:	e5852010 	str	r2, [r5, #16]
  92c7f0:	e5852018 	str	r2, [r5, #24]
  92c7f4:	e585201c 	str	r2, [r5, #28]
  92c7f8:	e5852028 	str	r2, [r5, #40]	; 0x28
  92c7fc:	e585202c 	str	r2, [r5, #44]	; 0x2c

0092c800 <doneDirection>:
  92c800:	eb000001 	bl	92c80c <getCoordinates>
  92c804:	e8bd47f0 	pop	{r4, r5, r6, r7, r8, r9, sl, lr}
  92c808:	e12fff1e 	bx	lr

0092c80c <getCoordinates>:
  92c80c:	e92d47f0 	push	{r4, r5, r6, r7, r8, r9, sl, lr}
  92c810:	e59f52fc 	ldr	r5, [pc, #764]	; 92cb14 <doneChecking+0x20>
  92c814:	e5951010 	ldr	r1, [r5, #16]
  92c818:	e5952014 	ldr	r2, [r5, #20]
  92c81c:	e5953018 	ldr	r3, [r5, #24]
  92c820:	e595401c 	ldr	r4, [r5, #28]
  92c824:	e5956030 	ldr	r6, [r5, #48]	; 0x30
  92c828:	e5957034 	ldr	r7, [r5, #52]	; 0x34

0092c82c <check_l>:
  92c82c:	e3510001 	cmp	r1, #1
  92c830:	1a000004 	bne	92c848 <check_r>
  92c834:	e3e00000 	mvn	r0, #0
  92c838:	e5850030 	str	r0, [r5, #48]	; 0x30
  92c83c:	e3a00000 	mov	r0, #0
  92c840:	e5850034 	str	r0, [r5, #52]	; 0x34
  92c844:	ea000014 	b	92c89c <doneCoordinates>

0092c848 <check_r>:
  92c848:	e3520001 	cmp	r2, #1
  92c84c:	1a000004 	bne	92c864 <check_u>
  92c850:	e3a00001 	mov	r0, #1
  92c854:	e5850030 	str	r0, [r5, #48]	; 0x30
  92c858:	e3a00000 	mov	r0, #0
  92c85c:	e5850034 	str	r0, [r5, #52]	; 0x34
  92c860:	ea00000d 	b	92c89c <doneCoordinates>

0092c864 <check_u>:
  92c864:	e3530001 	cmp	r3, #1
  92c868:	1a000004 	bne	92c880 <check_d>
  92c86c:	e3a00000 	mov	r0, #0
  92c870:	e5850030 	str	r0, [r5, #48]	; 0x30
  92c874:	e3e00000 	mvn	r0, #0
  92c878:	e5850034 	str	r0, [r5, #52]	; 0x34
  92c87c:	ea000006 	b	92c89c <doneCoordinates>

0092c880 <check_d>:
  92c880:	e3540001 	cmp	r4, #1
  92c884:	1a000004 	bne	92c89c <doneCoordinates>
  92c888:	e3a00000 	mov	r0, #0
  92c88c:	e5850030 	str	r0, [r5, #48]	; 0x30
  92c890:	e3a00001 	mov	r0, #1
  92c894:	e5850034 	str	r0, [r5, #52]	; 0x34
  92c898:	eaffffff 	b	92c89c <doneCoordinates>

0092c89c <doneCoordinates>:
  92c89c:	e8bd47f0 	pop	{r4, r5, r6, r7, r8, r9, sl, lr}
  92c8a0:	e12fff1e 	bx	lr

0092c8a4 <calculateOffset>:
  92c8a4:	e92d47f0 	push	{r4, r5, r6, r7, r8, r9, sl, lr}
  92c8a8:	e3a04008 	mov	r4, #8
  92c8ac:	e0000094 	mul	r0, r4, r0
  92c8b0:	e59f5260 	ldr	r5, [pc, #608]	; 92cb18 <doneChecking+0x24>
  92c8b4:	e0800005 	add	r0, r0, r5
  92c8b8:	e8bd47f0 	pop	{r4, r5, r6, r7, r8, r9, sl, lr}
  92c8bc:	e12fff1e 	bx	lr

0092c8c0 <initArr0y>:
  92c8c0:	e92d47f0 	push	{r4, r5, r6, r7, r8, r9, sl, lr}
  92c8c4:	e3a04004 	mov	r4, #4
  92c8c8:	e59f0244 	ldr	r0, [pc, #580]	; 92cb14 <doneChecking+0x20>
  92c8cc:	e580400c 	str	r4, [r0, #12]
  92c8d0:	e3a04001 	mov	r4, #1
  92c8d4:	e5804010 	str	r4, [r0, #16]
  92c8d8:	e5804024 	str	r4, [r0, #36]	; 0x24
  92c8dc:	e3a04000 	mov	r4, #0
  92c8e0:	e5804014 	str	r4, [r0, #20]
  92c8e4:	e5804018 	str	r4, [r0, #24]
  92c8e8:	e580401c 	str	r4, [r0, #28]
  92c8ec:	e5804020 	str	r4, [r0, #32]
  92c8f0:	e5804028 	str	r4, [r0, #40]	; 0x28
  92c8f4:	e580402c 	str	r4, [r0, #44]	; 0x2c
  92c8f8:	e3a04e36 	mov	r4, #864	; 0x360
  92c8fc:	e5804000 	str	r4, [r0]
  92c900:	e3a04e16 	mov	r4, #352	; 0x160
  92c904:	e5804004 	str	r4, [r0, #4]
  92c908:	e59f420c 	ldr	r4, [pc, #524]	; 92cb1c <doneChecking+0x28>
  92c90c:	e5804008 	str	r4, [r0, #8]
  92c910:	e3a04000 	mov	r4, #0
  92c914:	e5804038 	str	r4, [r0, #56]	; 0x38
  92c918:	e59f51f4 	ldr	r5, [pc, #500]	; 92cb14 <doneChecking+0x20>
  92c91c:	e5951000 	ldr	r1, [r5]
  92c920:	e5952004 	ldr	r2, [r5, #4]
  92c924:	e59f51ec 	ldr	r5, [pc, #492]	; 92cb18 <doneChecking+0x24>
  92c928:	e4851004 	str	r1, [r5], #4
  92c92c:	e4852004 	str	r2, [r5], #4
  92c930:	e2811020 	add	r1, r1, #32
  92c934:	e4851004 	str	r1, [r5], #4
  92c938:	e4852004 	str	r2, [r5], #4
  92c93c:	e2811020 	add	r1, r1, #32
  92c940:	e4851004 	str	r1, [r5], #4
  92c944:	e4852004 	str	r2, [r5], #4
  92c948:	e2811020 	add	r1, r1, #32
  92c94c:	e4851004 	str	r1, [r5], #4
  92c950:	e4852004 	str	r2, [r5], #4
  92c954:	e8bd47f0 	pop	{r4, r5, r6, r7, r8, r9, sl, lr}
  92c958:	e12fff1e 	bx	lr

0092c95c <clearArray>:
  92c95c:	e92d47f0 	push	{r4, r5, r6, r7, r8, r9, sl, lr}
  92c960:	e59f01b8 	ldr	r0, [pc, #440]	; 92cb20 <doneChecking+0x2c>
  92c964:	eb000337 	bl	92d648 <Wait>
  92c968:	e59f01a4 	ldr	r0, [pc, #420]	; 92cb14 <doneChecking+0x20>
  92c96c:	e590a00c 	ldr	sl, [r0, #12]
  92c970:	e3a09000 	mov	r9, #0
  92c974:	e3a04020 	mov	r4, #32

0092c978 <topClear>:
  92c978:	e159000a 	cmp	r9, sl
  92c97c:	aa000008 	bge	92c9a4 <clearState>
  92c980:	e1a00009 	mov	r0, r9
  92c984:	ebffffc6 	bl	92c8a4 <calculateOffset>
  92c988:	e1a02000 	mov	r2, r0
  92c98c:	e5920000 	ldr	r0, [r2]
  92c990:	e5921004 	ldr	r1, [r2, #4]
  92c994:	e59f2188 	ldr	r2, [pc, #392]	; 92cb24 <doneChecking+0x30>
  92c998:	eb000289 	bl	92d3c4 <DrawBox>
  92c99c:	e2899001 	add	r9, r9, #1
  92c9a0:	eafffff4 	b	92c978 <topClear>

0092c9a4 <clearState>:
  92c9a4:	e8bd47f0 	pop	{r4, r5, r6, r7, r8, r9, sl, lr}
  92c9a8:	e12fff1e 	bx	lr

0092c9ac <shiftArr0y>:
  92c9ac:	e92d47f0 	push	{r4, r5, r6, r7, r8, r9, sl, lr}
  92c9b0:	e59f415c 	ldr	r4, [pc, #348]	; 92cb14 <doneChecking+0x20>
  92c9b4:	e594a00c 	ldr	sl, [r4, #12]
  92c9b8:	e24aa001 	sub	sl, sl, #1
  92c9bc:	e1a05000 	mov	r5, r0
  92c9c0:	e1a06001 	mov	r6, r1

0092c9c4 <update>:
  92c9c4:	e35a0000 	cmp	sl, #0
  92c9c8:	0a000009 	beq	92c9f4 <updateHead>
  92c9cc:	e1a0000a 	mov	r0, sl
  92c9d0:	ebffffb3 	bl	92c8a4 <calculateOffset>
  92c9d4:	e2401008 	sub	r1, r0, #8
  92c9d8:	e5917000 	ldr	r7, [r1]
  92c9dc:	e5807000 	str	r7, [r0]
  92c9e0:	e2401004 	sub	r1, r0, #4
  92c9e4:	e5917000 	ldr	r7, [r1]
  92c9e8:	e5807004 	str	r7, [r0, #4]
  92c9ec:	e24aa001 	sub	sl, sl, #1
  92c9f0:	eafffff3 	b	92c9c4 <update>

0092c9f4 <updateHead>:
  92c9f4:	e3a00000 	mov	r0, #0
  92c9f8:	ebffffa9 	bl	92c8a4 <calculateOffset>
  92c9fc:	e1a07000 	mov	r7, r0
  92ca00:	e2878004 	add	r8, r7, #4
  92ca04:	e3a00020 	mov	r0, #32
  92ca08:	e5979000 	ldr	r9, [r7]
  92ca0c:	e0050590 	mul	r5, r0, r5
  92ca10:	e0899005 	add	r9, r9, r5
  92ca14:	e5879000 	str	r9, [r7]
  92ca18:	e5989000 	ldr	r9, [r8]
  92ca1c:	e0060690 	mul	r6, r0, r6
  92ca20:	e0899006 	add	r9, r9, r6
  92ca24:	e5889000 	str	r9, [r8]
  92ca28:	e8bd47f0 	pop	{r4, r5, r6, r7, r8, r9, sl, lr}
  92ca2c:	e12fff1e 	bx	lr

0092ca30 <checkCollision>:
  92ca30:	e92d47f0 	push	{r4, r5, r6, r7, r8, r9, sl, lr}
  92ca34:	e59f40d8 	ldr	r4, [pc, #216]	; 92cb14 <doneChecking+0x20>
  92ca38:	e3a00020 	mov	r0, #32
  92ca3c:	e5946030 	ldr	r6, [r4, #48]	; 0x30
  92ca40:	e5947034 	ldr	r7, [r4, #52]	; 0x34
  92ca44:	e59f50cc 	ldr	r5, [pc, #204]	; 92cb18 <doneChecking+0x24>
  92ca48:	e4958004 	ldr	r8, [r5], #4
  92ca4c:	e5959000 	ldr	r9, [r5]
  92ca50:	e0060690 	mul	r6, r0, r6
  92ca54:	e0070790 	mul	r7, r0, r7
  92ca58:	e0866008 	add	r6, r6, r8
  92ca5c:	e0877009 	add	r7, r7, r9
  92ca60:	e1a00006 	mov	r0, r6
  92ca64:	e1a01007 	mov	r1, r7
  92ca68:	eb00026a 	bl	92d418 <CheckBox>
  92ca6c:	e3500000 	cmp	r0, #0
  92ca70:	03a01000 	moveq	r1, #0
  92ca74:	03a02000 	moveq	r2, #0
  92ca78:	e3a03000 	mov	r3, #0
  92ca7c:	0a00001c 	beq	92caf4 <doneChecking>
  92ca80:	e1a00006 	mov	r0, r6
  92ca84:	e1a01007 	mov	r1, r7
  92ca88:	e59f206c 	ldr	r2, [pc, #108]	; 92cafc <doneChecking+0x8>
  92ca8c:	eb000233 	bl	92d360 <checkForPhoto>
  92ca90:	e3500000 	cmp	r0, #0
  92ca94:	1a000004 	bne	92caac <checkDoor>
  92ca98:	03a01001 	moveq	r1, #1
  92ca9c:	13a01000 	movne	r1, #0
  92caa0:	e3a02000 	mov	r2, #0
  92caa4:	e3a03000 	mov	r3, #0
  92caa8:	ea000011 	b	92caf4 <doneChecking>

0092caac <checkDoor>:
  92caac:	e1a00006 	mov	r0, r6
  92cab0:	e1a01007 	mov	r1, r7
  92cab4:	e59f2054 	ldr	r2, [pc, #84]	; 92cb10 <doneChecking+0x1c>
  92cab8:	eb000228 	bl	92d360 <checkForPhoto>
  92cabc:	e3500000 	cmp	r0, #0
  92cac0:	1a000003 	bne	92cad4 <checkValuePack>
  92cac4:	03a02001 	moveq	r2, #1
  92cac8:	e3a01000 	mov	r1, #0
  92cacc:	e3a03000 	mov	r3, #0
  92cad0:	ea000007 	b	92caf4 <doneChecking>

0092cad4 <checkValuePack>:
  92cad4:	e1a00006 	mov	r0, r6
  92cad8:	e1a01007 	mov	r1, r7
  92cadc:	e59f2044 	ldr	r2, [pc, #68]	; 92cb28 <doneChecking+0x34>
  92cae0:	eb00021e 	bl	92d360 <checkForPhoto>
  92cae4:	e3500000 	cmp	r0, #0
  92cae8:	03a03001 	moveq	r3, #1
  92caec:	e3a01000 	mov	r1, #0
  92caf0:	e3a02000 	mov	r2, #0

0092caf4 <doneChecking>:
  92caf4:	e8bd47f0 	pop	{r4, r5, r6, r7, r8, r9, sl, lr}
  92caf8:	e12fff1e 	bx	lr
  92cafc:	00010944 	.word	0x00010944
  92cb00:	000098bc 	.word	0x000098bc
  92cb04:	000098c8 	.word	0x000098c8
  92cb08:	00030d40 	.word	0x00030d40
  92cb0c:	000186a0 	.word	0x000186a0
  92cb10:	0000d944 	.word	0x0000d944
  92cb14:	000098cc 	.word	0x000098cc
  92cb18:	000090b4 	.word	0x000090b4
  92cb1c:	000124f8 	.word	0x000124f8
  92cb20:	000493e0 	.word	0x000493e0
  92cb24:	000097ff 	.word	0x000097ff
  92cb28:	007a196c 	.word	0x007a196c

0092cb2c <initInterrupt>:
  92cb2c:	e59f20fc 	ldr	r2, [pc, #252]	; 92cc30 <irqEnd+0x14>
  92cb30:	e59f10fc 	ldr	r1, [pc, #252]	; 92cc34 <irqEnd+0x18>
  92cb34:	e5910000 	ldr	r0, [r1]
  92cb38:	e0801002 	add	r1, r0, r2
  92cb3c:	e59f00f4 	ldr	r0, [pc, #244]	; 92cc38 <irqEnd+0x1c>
  92cb40:	e5801000 	str	r1, [r0]
  92cb44:	e10f1000 	mrs	r1, CPSR
  92cb48:	e3c11080 	bic	r1, r1, #128	; 0x80
  92cb4c:	e121f001 	msr	CPSR_c, r1
  92cb50:	e59f00e4 	ldr	r0, [pc, #228]	; 92cc3c <irqEnd+0x20>
  92cb54:	e5901000 	ldr	r1, [r0]
  92cb58:	e3811002 	orr	r1, r1, #2
  92cb5c:	e5801000 	str	r1, [r0]
  92cb60:	e12fff1e 	bx	lr

0092cb64 <InstallIntTable>:
  92cb64:	e59f00d4 	ldr	r0, [pc, #212]	; 92cc40 <irqEnd+0x24>
  92cb68:	e3a01000 	mov	r1, #0
  92cb6c:	e8b003fc 	ldm	r0!, {r2, r3, r4, r5, r6, r7, r8, r9}
  92cb70:	e8a103fc 	stmia	r1!, {r2, r3, r4, r5, r6, r7, r8, r9}
  92cb74:	e8b003fc 	ldm	r0!, {r2, r3, r4, r5, r6, r7, r8, r9}
  92cb78:	e8a103fc 	stmia	r1!, {r2, r3, r4, r5, r6, r7, r8, r9}
  92cb7c:	e3a000d2 	mov	r0, #210	; 0xd2
  92cb80:	e121f000 	msr	CPSR_c, r0
  92cb84:	e3a0d902 	mov	sp, #32768	; 0x8000
  92cb88:	e3a000d3 	mov	r0, #211	; 0xd3
  92cb8c:	e121f000 	msr	CPSR_c, r0
  92cb90:	e3a0d302 	mov	sp, #134217728	; 0x8000000
  92cb94:	e12fff1e 	bx	lr

0092cb98 <disableInterrupt>:
  92cb98:	e92d5fff 	push	{r0, r1, r2, r3, r4, r5, r6, r7, r8, r9, sl, fp, ip, lr}
  92cb9c:	e10f1000 	mrs	r1, CPSR
  92cba0:	e3811080 	orr	r1, r1, #128	; 0x80
  92cba4:	e121f001 	msr	CPSR_c, r1
  92cba8:	e8bd5fff 	pop	{r0, r1, r2, r3, r4, r5, r6, r7, r8, r9, sl, fp, ip, lr}
  92cbac:	e12fff1e 	bx	lr

0092cbb0 <enableInterrupt>:
  92cbb0:	e92d5fff 	push	{r0, r1, r2, r3, r4, r5, r6, r7, r8, r9, sl, fp, ip, lr}
  92cbb4:	e10f1000 	mrs	r1, CPSR
  92cbb8:	e3c11080 	bic	r1, r1, #128	; 0x80
  92cbbc:	e121f001 	msr	CPSR_c, r1
  92cbc0:	e8bd5fff 	pop	{r0, r1, r2, r3, r4, r5, r6, r7, r8, r9, sl, fp, ip, lr}
  92cbc4:	e12fff1e 	bx	lr

0092cbc8 <irq>:
  92cbc8:	e92d5fff 	push	{r0, r1, r2, r3, r4, r5, r6, r7, r8, r9, sl, fp, ip, lr}
  92cbcc:	e59f0070 	ldr	r0, [pc, #112]	; 92cc44 <irqEnd+0x28>
  92cbd0:	e5901000 	ldr	r1, [r0]
  92cbd4:	e3110002 	tst	r1, #2
  92cbd8:	0a00000f 	beq	92cc1c <irqEnd>
  92cbdc:	e59f0060 	ldr	r0, [pc, #96]	; 92cc44 <irqEnd+0x28>
  92cbe0:	e5901000 	ldr	r1, [r0]
  92cbe4:	e3c11002 	bic	r1, r1, #2
  92cbe8:	e5801000 	str	r1, [r0]
  92cbec:	e59f0054 	ldr	r0, [pc, #84]	; 92cc48 <irqEnd+0x2c>
  92cbf0:	ebfffdd9 	bl	92c35c <r0ndomPhoto>
  92cbf4:	e59f2034 	ldr	r2, [pc, #52]	; 92cc30 <irqEnd+0x14>
  92cbf8:	e59f1034 	ldr	r1, [pc, #52]	; 92cc34 <irqEnd+0x18>
  92cbfc:	e5910000 	ldr	r0, [r1]
  92cc00:	e0801002 	add	r1, r0, r2
  92cc04:	e59f002c 	ldr	r0, [pc, #44]	; 92cc38 <irqEnd+0x1c>
  92cc08:	e5801000 	str	r1, [r0]
  92cc0c:	e59f0038 	ldr	r0, [pc, #56]	; 92cc4c <irqEnd+0x30>
  92cc10:	e5901000 	ldr	r1, [r0]
  92cc14:	e3811002 	orr	r1, r1, #2
  92cc18:	e5801000 	str	r1, [r0]

0092cc1c <irqEnd>:
  92cc1c:	e59f0028 	ldr	r0, [pc, #40]	; 92cc4c <irqEnd+0x30>
  92cc20:	e5901000 	ldr	r1, [r0]
  92cc24:	e5801000 	str	r1, [r0]
  92cc28:	e8bd5fff 	pop	{r0, r1, r2, r3, r4, r5, r6, r7, r8, r9, sl, fp, ip, lr}
  92cc2c:	e25ef004 	subs	pc, lr, #4
  92cc30:	01c9c380 	.word	0x01c9c380
  92cc34:	20003004 	.word	0x20003004
  92cc38:	20003010 	.word	0x20003010
  92cc3c:	2000b210 	.word	0x2000b210
  92cc40:	00009904 	.word	0x00009904
  92cc44:	2000b204 	.word	0x2000b204
  92cc48:	007a196c 	.word	0x007a196c
  92cc4c:	20003000 	.word	0x20003000

0092cc50 <EnableJTAG>:
  92cc50:	e52de004 	push	{lr}		; (str lr, [sp, #-4]!)
  92cc54:	e59f0064 	ldr	r0, [pc, #100]	; 92ccc0 <dowaitloop+0xc>
  92cc58:	e0211001 	eor	r1, r1, r1
  92cc5c:	e5801000 	str	r1, [r0]
  92cc60:	eb000012 	bl	92ccb0 <dowait>
  92cc64:	e59f0058 	ldr	r0, [pc, #88]	; 92ccc4 <dowaitloop+0x10>
  92cc68:	e59f1058 	ldr	r1, [pc, #88]	; 92ccc8 <dowaitloop+0x14>
  92cc6c:	e5801000 	str	r1, [r0]
  92cc70:	eb00000e 	bl	92ccb0 <dowait>
  92cc74:	e0211001 	eor	r1, r1, r1
  92cc78:	e5801000 	str	r1, [r0]
  92cc7c:	e59f0048 	ldr	r0, [pc, #72]	; 92cccc <dowaitloop+0x18>
  92cc80:	e5901000 	ldr	r1, [r0]
  92cc84:	e3c11a07 	bic	r1, r1, #28672	; 0x7000
  92cc88:	e3811a02 	orr	r1, r1, #8192	; 0x2000
  92cc8c:	e5801000 	str	r1, [r0]
  92cc90:	e59f0038 	ldr	r0, [pc, #56]	; 92ccd0 <dowaitloop+0x1c>
  92cc94:	e5901000 	ldr	r1, [r0]
  92cc98:	e59f2034 	ldr	r2, [pc, #52]	; 92ccd4 <dowaitloop+0x20>
  92cc9c:	e1c11002 	bic	r1, r1, r2
  92cca0:	e59f2030 	ldr	r2, [pc, #48]	; 92ccd8 <dowaitloop+0x24>
  92cca4:	e1811002 	orr	r1, r1, r2
  92cca8:	e5801000 	str	r1, [r0]
  92ccac:	e49df004 	pop	{pc}		; (ldr pc, [sp], #4)

0092ccb0 <dowait>:
  92ccb0:	e3a02f4b 	mov	r2, #300	; 0x12c

0092ccb4 <dowaitloop>:
  92ccb4:	e2522001 	subs	r2, r2, #1
  92ccb8:	1afffffd 	bne	92ccb4 <dowaitloop>
  92ccbc:	e12fff1e 	bx	lr
  92ccc0:	20200094 	.word	0x20200094
  92ccc4:	20200098 	.word	0x20200098
  92ccc8:	0bc00010 	.word	0x0bc00010
  92cccc:	20200000 	.word	0x20200000
  92ccd0:	20200008 	.word	0x20200008
  92ccd4:	00e3ffc0 	.word	0x00e3ffc0
  92ccd8:	0061b6c0 	.word	0x0061b6c0

0092ccdc <main>:
  92ccdc:	ebffffa0 	bl	92cb64 <InstallIntTable>
  92cce0:	ebffffda 	bl	92cc50 <EnableJTAG>
  92cce4:	ebfffdf1 	bl	92c4b0 <InitFrameBuffer>
  92cce8:	ebfffe0c 	bl	92c520 <initGameMap>

0092ccec <haltLoop$>:
  92ccec:	eafffffe 	b	92ccec <haltLoop$>

0092ccf0 <vid>:
  92ccf0:	e92d47f0 	push	{r4, r5, r6, r7, r8, r9, sl, lr}
  92ccf4:	e59f23c8 	ldr	r2, [pc, #968]	; 92d0c4 <DrawLayoutOne+0x1ec>
  92ccf8:	eb000012 	bl	92cd48 <Background>
  92ccfc:	eb000040 	bl	92ce04 <Border>
  92cd00:	eb000074 	bl	92ced8 <DrawLayoutOne>
  92cd04:	eb00001b 	bl	92cd78 <Stats>
  92cd08:	e8bd47f0 	pop	{r4, r5, r6, r7, r8, r9, sl, lr}
  92cd0c:	e12fff1e 	bx	lr

0092cd10 <changeBackground>:
  92cd10:	e92d47f0 	push	{r4, r5, r6, r7, r8, r9, sl, lr}
  92cd14:	e3a00000 	mov	r0, #0
  92cd18:	e3a01000 	mov	r1, #0
  92cd1c:	e3a06000 	mov	r6, #0
  92cd20:	e1a08002 	mov	r8, r2

0092cd24 <loopAgain>:
  92cd24:	e0d820b2 	ldrh	r2, [r8], #2
  92cd28:	eb000166 	bl	92d2c8 <DrawPixel>
  92cd2c:	e2866001 	add	r6, r6, #1
  92cd30:	e59f5390 	ldr	r5, [pc, #912]	; 92d0c8 <DrawLayoutOne+0x1f0>
  92cd34:	e1560005 	cmp	r6, r5
  92cd38:	e1a00006 	mov	r0, r6
  92cd3c:	bafffff8 	blt	92cd24 <loopAgain>
  92cd40:	e8bd47f0 	pop	{r4, r5, r6, r7, r8, r9, sl, lr}
  92cd44:	e12fff1e 	bx	lr

0092cd48 <Background>:
  92cd48:	e92d47f0 	push	{r4, r5, r6, r7, r8, r9, sl, lr}
  92cd4c:	e3a00000 	mov	r0, #0
  92cd50:	e3a01000 	mov	r1, #0
  92cd54:	e3a06000 	mov	r6, #0

0092cd58 <loop>:
  92cd58:	eb00015a 	bl	92d2c8 <DrawPixel>
  92cd5c:	e2866001 	add	r6, r6, #1
  92cd60:	e59f5360 	ldr	r5, [pc, #864]	; 92d0c8 <DrawLayoutOne+0x1f0>
  92cd64:	e1560005 	cmp	r6, r5
  92cd68:	e1a00006 	mov	r0, r6
  92cd6c:	bafffff9 	blt	92cd58 <loop>
  92cd70:	e8bd47f0 	pop	{r4, r5, r6, r7, r8, r9, sl, lr}
  92cd74:	e12fff1e 	bx	lr

0092cd78 <Stats>:
  92cd78:	e92d47f0 	push	{r4, r5, r6, r7, r8, r9, sl, lr}
  92cd7c:	e3a00d07 	mov	r0, #448	; 0x1c0
  92cd80:	e3a01d0b 	mov	r1, #704	; 0x2c0
  92cd84:	e59f2340 	ldr	r2, [pc, #832]	; 92d0cc <DrawLayoutOne+0x1f4>
  92cd88:	eb00015f 	bl	92d30c <DrawPhoto>
  92cd8c:	e3a00e1e 	mov	r0, #480	; 0x1e0
  92cd90:	e3a01d0b 	mov	r1, #704	; 0x2c0
  92cd94:	e59f2334 	ldr	r2, [pc, #820]	; 92d0d0 <DrawLayoutOne+0x1f8>
  92cd98:	eb00015b 	bl	92d30c <DrawPhoto>
  92cd9c:	e3a00c02 	mov	r0, #512	; 0x200
  92cda0:	e3a01d0b 	mov	r1, #704	; 0x2c0
  92cda4:	e59f2328 	ldr	r2, [pc, #808]	; 92d0d4 <DrawLayoutOne+0x1fc>
  92cda8:	eb000157 	bl	92d30c <DrawPhoto>
  92cdac:	e3a00e22 	mov	r0, #544	; 0x220
  92cdb0:	e59f1320 	ldr	r1, [pc, #800]	; 92d0d8 <DrawLayoutOne+0x200>
  92cdb4:	e59f2320 	ldr	r2, [pc, #800]	; 92d0dc <DrawLayoutOne+0x204>
  92cdb8:	eb000153 	bl	92d30c <DrawPhoto>
  92cdbc:	e3a00d07 	mov	r0, #448	; 0x1c0
  92cdc0:	e3a01e2e 	mov	r1, #736	; 0x2e0
  92cdc4:	e59f2314 	ldr	r2, [pc, #788]	; 92d0e0 <DrawLayoutOne+0x208>
  92cdc8:	eb00014f 	bl	92d30c <DrawPhoto>
  92cdcc:	e3a00e1e 	mov	r0, #480	; 0x1e0
  92cdd0:	e3a01e2e 	mov	r1, #736	; 0x2e0
  92cdd4:	e59f22f4 	ldr	r2, [pc, #756]	; 92d0d0 <DrawLayoutOne+0x1f8>
  92cdd8:	eb00014b 	bl	92d30c <DrawPhoto>
  92cddc:	e3a00c02 	mov	r0, #512	; 0x200
  92cde0:	e3a01e2e 	mov	r1, #736	; 0x2e0
  92cde4:	e59f22e8 	ldr	r2, [pc, #744]	; 92d0d4 <DrawLayoutOne+0x1fc>
  92cde8:	eb000147 	bl	92d30c <DrawPhoto>
  92cdec:	e3a00e22 	mov	r0, #544	; 0x220
  92cdf0:	e3a01e2e 	mov	r1, #736	; 0x2e0
  92cdf4:	e59f22d8 	ldr	r2, [pc, #728]	; 92d0d4 <DrawLayoutOne+0x1fc>
  92cdf8:	eb000143 	bl	92d30c <DrawPhoto>
  92cdfc:	e8bd47f0 	pop	{r4, r5, r6, r7, r8, r9, sl, lr}
  92ce00:	e12fff1e 	bx	lr

0092ce04 <Border>:
  92ce04:	e92d47f0 	push	{r4, r5, r6, r7, r8, r9, sl, lr}
  92ce08:	e3a04000 	mov	r4, #0

0092ce0c <printBy>:
  92ce0c:	e3a00000 	mov	r0, #0
  92ce10:	e1a01004 	mov	r1, r4
  92ce14:	e59f22c8 	ldr	r2, [pc, #712]	; 92d0e4 <DrawLayoutOne+0x20c>
  92ce18:	eb00013b 	bl	92d30c <DrawPhoto>
  92ce1c:	e3a00e3e 	mov	r0, #992	; 0x3e0
  92ce20:	e1a01004 	mov	r1, r4
  92ce24:	e59f22bc 	ldr	r2, [pc, #700]	; 92d0e8 <DrawLayoutOne+0x210>
  92ce28:	eb000137 	bl	92d30c <DrawPhoto>

0092ce2c <next>:
  92ce2c:	e2844020 	add	r4, r4, #32
  92ce30:	e3a00e2a 	mov	r0, #672	; 0x2a0
  92ce34:	e1540000 	cmp	r4, r0
  92ce38:	dafffff3 	ble	92ce0c <printBy>
  92ce3c:	e3a04000 	mov	r4, #0

0092ce40 <printBx>:
  92ce40:	e1a00004 	mov	r0, r4
  92ce44:	e3a01000 	mov	r1, #0
  92ce48:	e59f229c 	ldr	r2, [pc, #668]	; 92d0ec <DrawLayoutOne+0x214>
  92ce4c:	eb00012e 	bl	92d30c <DrawPhoto>
  92ce50:	e1a00004 	mov	r0, r4
  92ce54:	e3a01e2a 	mov	r1, #672	; 0x2a0
  92ce58:	e59f2290 	ldr	r2, [pc, #656]	; 92d0f0 <DrawLayoutOne+0x218>
  92ce5c:	eb00012a 	bl	92d30c <DrawPhoto>
  92ce60:	e1a00004 	mov	r0, r4
  92ce64:	e3a01d0b 	mov	r1, #704	; 0x2c0
  92ce68:	e59f2284 	ldr	r2, [pc, #644]	; 92d0f4 <DrawLayoutOne+0x21c>
  92ce6c:	eb000126 	bl	92d30c <DrawPhoto>
  92ce70:	e1a00004 	mov	r0, r4
  92ce74:	e3a01e2e 	mov	r1, #736	; 0x2e0
  92ce78:	e59f2274 	ldr	r2, [pc, #628]	; 92d0f4 <DrawLayoutOne+0x21c>
  92ce7c:	eb000122 	bl	92d30c <DrawPhoto>
  92ce80:	e2844020 	add	r4, r4, #32
  92ce84:	e3a00e3e 	mov	r0, #992	; 0x3e0
  92ce88:	e1540000 	cmp	r4, r0
  92ce8c:	daffffeb 	ble	92ce40 <printBx>
  92ce90:	e3a00000 	mov	r0, #0
  92ce94:	e3a01000 	mov	r1, #0
  92ce98:	e59f2258 	ldr	r2, [pc, #600]	; 92d0f8 <DrawLayoutOne+0x220>
  92ce9c:	eb00011a 	bl	92d30c <DrawPhoto>
  92cea0:	e3a00000 	mov	r0, #0
  92cea4:	e3a01e2a 	mov	r1, #672	; 0x2a0
  92cea8:	e59f224c 	ldr	r2, [pc, #588]	; 92d0fc <DrawLayoutOne+0x224>
  92ceac:	eb000116 	bl	92d30c <DrawPhoto>
  92ceb0:	e3a00e3e 	mov	r0, #992	; 0x3e0
  92ceb4:	e3a01e2a 	mov	r1, #672	; 0x2a0
  92ceb8:	e59f2240 	ldr	r2, [pc, #576]	; 92d100 <DrawLayoutOne+0x228>
  92cebc:	eb000112 	bl	92d30c <DrawPhoto>
  92cec0:	e3a00e3e 	mov	r0, #992	; 0x3e0
  92cec4:	e3a01000 	mov	r1, #0
  92cec8:	e59f2234 	ldr	r2, [pc, #564]	; 92d104 <DrawLayoutOne+0x22c>
  92cecc:	eb00010e 	bl	92d30c <DrawPhoto>
  92ced0:	e8bd47f0 	pop	{r4, r5, r6, r7, r8, r9, sl, lr}
  92ced4:	e12fff1e 	bx	lr

0092ced8 <DrawLayoutOne>:
  92ced8:	e92d47f0 	push	{r4, r5, r6, r7, r8, r9, sl, lr}
  92cedc:	e3a00c02 	mov	r0, #512	; 0x200
  92cee0:	e3a010e0 	mov	r1, #224	; 0xe0
  92cee4:	e59f221c 	ldr	r2, [pc, #540]	; 92d108 <DrawLayoutOne+0x230>
  92cee8:	eb000107 	bl	92d30c <DrawPhoto>
  92ceec:	e3a00c02 	mov	r0, #512	; 0x200
  92cef0:	e3a01c01 	mov	r1, #256	; 0x100
  92cef4:	e59f220c 	ldr	r2, [pc, #524]	; 92d108 <DrawLayoutOne+0x230>
  92cef8:	eb000103 	bl	92d30c <DrawPhoto>
  92cefc:	e3a00c02 	mov	r0, #512	; 0x200
  92cf00:	e3a01e12 	mov	r1, #288	; 0x120
  92cf04:	e59f21fc 	ldr	r2, [pc, #508]	; 92d108 <DrawLayoutOne+0x230>
  92cf08:	eb0000ff 	bl	92d30c <DrawPhoto>
  92cf0c:	e3a00e1e 	mov	r0, #480	; 0x1e0
  92cf10:	e3a01e12 	mov	r1, #288	; 0x120
  92cf14:	e59f21ec 	ldr	r2, [pc, #492]	; 92d108 <DrawLayoutOne+0x230>
  92cf18:	eb0000fb 	bl	92d30c <DrawPhoto>
  92cf1c:	e3a00e22 	mov	r0, #544	; 0x220
  92cf20:	e3a01e12 	mov	r1, #288	; 0x120
  92cf24:	e59f21dc 	ldr	r2, [pc, #476]	; 92d108 <DrawLayoutOne+0x230>
  92cf28:	eb0000f7 	bl	92d30c <DrawPhoto>
  92cf2c:	e3a00c02 	mov	r0, #512	; 0x200
  92cf30:	e3a01d05 	mov	r1, #320	; 0x140
  92cf34:	e59f21cc 	ldr	r2, [pc, #460]	; 92d108 <DrawLayoutOne+0x230>
  92cf38:	eb0000f3 	bl	92d30c <DrawPhoto>
  92cf3c:	e3a00c02 	mov	r0, #512	; 0x200
  92cf40:	e3a01e16 	mov	r1, #352	; 0x160
  92cf44:	e59f21bc 	ldr	r2, [pc, #444]	; 92d108 <DrawLayoutOne+0x230>
  92cf48:	eb0000ef 	bl	92d30c <DrawPhoto>
  92cf4c:	e3a00e1e 	mov	r0, #480	; 0x1e0
  92cf50:	e3a01e16 	mov	r1, #352	; 0x160
  92cf54:	e59f21ac 	ldr	r2, [pc, #428]	; 92d108 <DrawLayoutOne+0x230>
  92cf58:	eb0000eb 	bl	92d30c <DrawPhoto>
  92cf5c:	e3a00e22 	mov	r0, #544	; 0x220
  92cf60:	e3a01e16 	mov	r1, #352	; 0x160
  92cf64:	e59f219c 	ldr	r2, [pc, #412]	; 92d108 <DrawLayoutOne+0x230>
  92cf68:	eb0000e7 	bl	92d30c <DrawPhoto>
  92cf6c:	e3a00c02 	mov	r0, #512	; 0x200
  92cf70:	e3a01d06 	mov	r1, #384	; 0x180
  92cf74:	e59f218c 	ldr	r2, [pc, #396]	; 92d108 <DrawLayoutOne+0x230>
  92cf78:	eb0000e3 	bl	92d30c <DrawPhoto>
  92cf7c:	e3a00c02 	mov	r0, #512	; 0x200
  92cf80:	e3a01e1a 	mov	r1, #416	; 0x1a0
  92cf84:	e59f217c 	ldr	r2, [pc, #380]	; 92d108 <DrawLayoutOne+0x230>
  92cf88:	eb0000df 	bl	92d30c <DrawPhoto>
  92cf8c:	e3a00e1e 	mov	r0, #480	; 0x1e0
  92cf90:	e3a01d05 	mov	r1, #320	; 0x140
  92cf94:	e59f216c 	ldr	r2, [pc, #364]	; 92d108 <DrawLayoutOne+0x230>
  92cf98:	eb0000db 	bl	92d30c <DrawPhoto>
  92cf9c:	e3a00e22 	mov	r0, #544	; 0x220
  92cfa0:	e3a01d05 	mov	r1, #320	; 0x140
  92cfa4:	e59f215c 	ldr	r2, [pc, #348]	; 92d108 <DrawLayoutOne+0x230>
  92cfa8:	eb0000d7 	bl	92d30c <DrawPhoto>
  92cfac:	e3a00d07 	mov	r0, #448	; 0x1c0
  92cfb0:	e3a01d05 	mov	r1, #320	; 0x140
  92cfb4:	e59f214c 	ldr	r2, [pc, #332]	; 92d108 <DrawLayoutOne+0x230>
  92cfb8:	eb0000d3 	bl	92d30c <DrawPhoto>
  92cfbc:	e3a00d09 	mov	r0, #576	; 0x240
  92cfc0:	e3a01d05 	mov	r1, #320	; 0x140
  92cfc4:	e59f213c 	ldr	r2, [pc, #316]	; 92d108 <DrawLayoutOne+0x230>
  92cfc8:	eb0000cf 	bl	92d30c <DrawPhoto>
  92cfcc:	e3a00c01 	mov	r0, #256	; 0x100
  92cfd0:	e3a010c0 	mov	r1, #192	; 0xc0
  92cfd4:	e59f212c 	ldr	r2, [pc, #300]	; 92d108 <DrawLayoutOne+0x230>
  92cfd8:	eb0000cb 	bl	92d30c <DrawPhoto>
  92cfdc:	e3a00c01 	mov	r0, #256	; 0x100
  92cfe0:	e3a01d05 	mov	r1, #320	; 0x140
  92cfe4:	e59f211c 	ldr	r2, [pc, #284]	; 92d108 <DrawLayoutOne+0x230>
  92cfe8:	eb0000c7 	bl	92d30c <DrawPhoto>
  92cfec:	e3a00c01 	mov	r0, #256	; 0x100
  92cff0:	e3a01d07 	mov	r1, #448	; 0x1c0
  92cff4:	e59f210c 	ldr	r2, [pc, #268]	; 92d108 <DrawLayoutOne+0x230>
  92cff8:	eb0000c3 	bl	92d30c <DrawPhoto>
  92cffc:	e3a00c03 	mov	r0, #768	; 0x300
  92d000:	e3a010c0 	mov	r1, #192	; 0xc0
  92d004:	e59f20fc 	ldr	r2, [pc, #252]	; 92d108 <DrawLayoutOne+0x230>
  92d008:	eb0000bf 	bl	92d30c <DrawPhoto>
  92d00c:	e3a00c03 	mov	r0, #768	; 0x300
  92d010:	e3a01d07 	mov	r1, #448	; 0x1c0
  92d014:	e59f20ec 	ldr	r2, [pc, #236]	; 92d108 <DrawLayoutOne+0x230>
  92d018:	eb0000bb 	bl	92d30c <DrawPhoto>
  92d01c:	e3a00d09 	mov	r0, #576	; 0x240
  92d020:	e3a01e12 	mov	r1, #288	; 0x120
  92d024:	e59f20dc 	ldr	r2, [pc, #220]	; 92d108 <DrawLayoutOne+0x230>
  92d028:	eb0000b7 	bl	92d30c <DrawPhoto>
  92d02c:	e3a00e22 	mov	r0, #544	; 0x220
  92d030:	e3a01c01 	mov	r1, #256	; 0x100
  92d034:	e59f20cc 	ldr	r2, [pc, #204]	; 92d108 <DrawLayoutOne+0x230>
  92d038:	eb0000b3 	bl	92d30c <DrawPhoto>
  92d03c:	e3a00e1e 	mov	r0, #480	; 0x1e0
  92d040:	e3a01c01 	mov	r1, #256	; 0x100
  92d044:	e59f20bc 	ldr	r2, [pc, #188]	; 92d108 <DrawLayoutOne+0x230>
  92d048:	eb0000af 	bl	92d30c <DrawPhoto>
  92d04c:	e3a00d07 	mov	r0, #448	; 0x1c0
  92d050:	e3a01e12 	mov	r1, #288	; 0x120
  92d054:	e59f20ac 	ldr	r2, [pc, #172]	; 92d108 <DrawLayoutOne+0x230>
  92d058:	eb0000ab 	bl	92d30c <DrawPhoto>
  92d05c:	e3a00e1e 	mov	r0, #480	; 0x1e0
  92d060:	e3a01d06 	mov	r1, #384	; 0x180
  92d064:	e59f209c 	ldr	r2, [pc, #156]	; 92d108 <DrawLayoutOne+0x230>
  92d068:	eb0000a7 	bl	92d30c <DrawPhoto>
  92d06c:	e3a00d07 	mov	r0, #448	; 0x1c0
  92d070:	e3a01e16 	mov	r1, #352	; 0x160
  92d074:	e59f208c 	ldr	r2, [pc, #140]	; 92d108 <DrawLayoutOne+0x230>
  92d078:	eb0000a3 	bl	92d30c <DrawPhoto>
  92d07c:	e3a00d09 	mov	r0, #576	; 0x240
  92d080:	e3a01e16 	mov	r1, #352	; 0x160
  92d084:	e59f207c 	ldr	r2, [pc, #124]	; 92d108 <DrawLayoutOne+0x230>
  92d088:	eb00009f 	bl	92d30c <DrawPhoto>
  92d08c:	e3a00e22 	mov	r0, #544	; 0x220
  92d090:	e3a01d06 	mov	r1, #384	; 0x180
  92d094:	e59f206c 	ldr	r2, [pc, #108]	; 92d108 <DrawLayoutOne+0x230>
  92d098:	eb00009b 	bl	92d30c <DrawPhoto>
  92d09c:	e3a00e26 	mov	r0, #608	; 0x260
  92d0a0:	e3a01d05 	mov	r1, #320	; 0x140
  92d0a4:	e59f205c 	ldr	r2, [pc, #92]	; 92d108 <DrawLayoutOne+0x230>
  92d0a8:	eb000097 	bl	92d30c <DrawPhoto>
  92d0ac:	e3a00e1a 	mov	r0, #416	; 0x1a0
  92d0b0:	e3a01d05 	mov	r1, #320	; 0x140
  92d0b4:	e59f204c 	ldr	r2, [pc, #76]	; 92d108 <DrawLayoutOne+0x230>
  92d0b8:	eb000093 	bl	92d30c <DrawPhoto>
  92d0bc:	e8bd47f0 	pop	{r4, r5, r6, r7, r8, r9, sl, lr}
  92d0c0:	e12fff1e 	bx	lr
  92d0c4:	000097ff 	.word	0x000097ff
  92d0c8:	000c0032 	.word	0x000c0032
  92d0cc:	0000f144 	.word	0x0000f144
  92d0d0:	0000f944 	.word	0x0000f944
  92d0d4:	0061116c 	.word	0x0061116c
  92d0d8:	000002be 	.word	0x000002be
  92d0dc:	0061296c 	.word	0x0061296c
  92d0e0:	00010144 	.word	0x00010144
  92d0e4:	0000a144 	.word	0x0000a144
  92d0e8:	0000a944 	.word	0x0000a944
  92d0ec:	0000b144 	.word	0x0000b144
  92d0f0:	00009944 	.word	0x00009944
  92d0f4:	0000e144 	.word	0x0000e144
  92d0f8:	0000b944 	.word	0x0000b944
  92d0fc:	0000d144 	.word	0x0000d144
  92d100:	0000c144 	.word	0x0000c144
  92d104:	0000c944 	.word	0x0000c944
  92d108:	0000e944 	.word	0x0000e944

0092d10c <startMenu>:
  92d10c:	e92d47f0 	push	{r4, r5, r6, r7, r8, r9, sl, lr}

0092d110 <gameMenuStart>:
  92d110:	e59f2188 	ldr	r2, [pc, #392]	; 92d2a0 <breakLoop+0x8>
  92d114:	ebfffefd 	bl	92cd10 <changeBackground>

0092d118 <gameMenuStartLoop>:
  92d118:	eb0000ed 	bl	92d4d4 <Snes>
  92d11c:	e1a04000 	mov	r4, r0
  92d120:	e3540006 	cmp	r4, #6
  92d124:	0a000002 	beq	92d134 <gameMenuStory>
  92d128:	e3540009 	cmp	r4, #9
  92d12c:	0a00001e 	beq	92d1ac <start>
  92d130:	eafffff8 	b	92d118 <gameMenuStartLoop>

0092d134 <gameMenuStory>:
  92d134:	e59f2168 	ldr	r2, [pc, #360]	; 92d2a4 <breakLoop+0xc>
  92d138:	ebfffef4 	bl	92cd10 <changeBackground>

0092d13c <gameMenuStoryLoop>:
  92d13c:	eb0000e4 	bl	92d4d4 <Snes>
  92d140:	e1a04000 	mov	r4, r0
  92d144:	e3540006 	cmp	r4, #6
  92d148:	0a000004 	beq	92d160 <gameMenuQuit>
  92d14c:	e3540005 	cmp	r4, #5
  92d150:	0affffee 	beq	92d110 <gameMenuStart>
  92d154:	e3540009 	cmp	r4, #9
  92d158:	0a000009 	beq	92d184 <story>
  92d15c:	eafffff6 	b	92d13c <gameMenuStoryLoop>

0092d160 <gameMenuQuit>:
  92d160:	e59f2140 	ldr	r2, [pc, #320]	; 92d2a8 <breakLoop+0x10>
  92d164:	ebfffee9 	bl	92cd10 <changeBackground>

0092d168 <gameMenuQuitLoop>:
  92d168:	eb0000d9 	bl	92d4d4 <Snes>
  92d16c:	e1a04000 	mov	r4, r0
  92d170:	e3540005 	cmp	r4, #5
  92d174:	0affffee 	beq	92d134 <gameMenuStory>
  92d178:	e3540009 	cmp	r4, #9
  92d17c:	0a000007 	beq	92d1a0 <quit>
  92d180:	eafffff8 	b	92d168 <gameMenuQuitLoop>

0092d184 <story>:
  92d184:	e59f2120 	ldr	r2, [pc, #288]	; 92d2ac <breakLoop+0x14>
  92d188:	ebfffee0 	bl	92cd10 <changeBackground>

0092d18c <askAgain>:
  92d18c:	eb0000d0 	bl	92d4d4 <Snes>
  92d190:	e1a04000 	mov	r4, r0
  92d194:	e3540001 	cmp	r4, #1
  92d198:	0affffdc 	beq	92d110 <gameMenuStart>
  92d19c:	eafffffa 	b	92d18c <askAgain>

0092d1a0 <quit>:
  92d1a0:	e3a02000 	mov	r2, #0
  92d1a4:	ebfffee7 	bl	92cd48 <Background>
  92d1a8:	ebfffecf 	bl	92ccec <haltLoop$>

0092d1ac <start>:
  92d1ac:	e8bd47f0 	pop	{r4, r5, r6, r7, r8, r9, sl, lr}
  92d1b0:	e12fff1e 	bx	lr

0092d1b4 <loser>:
  92d1b4:	e92d47f0 	push	{r4, r5, r6, r7, r8, r9, sl, lr}
  92d1b8:	e59f20f0 	ldr	r2, [pc, #240]	; 92d2b0 <breakLoop+0x18>
  92d1bc:	ebfffed3 	bl	92cd10 <changeBackground>

0092d1c0 <loseLoop>:
  92d1c0:	eb0000c3 	bl	92d4d4 <Snes>
  92d1c4:	e1a04000 	mov	r4, r0
  92d1c8:	e3540000 	cmp	r4, #0
  92d1cc:	0afffffb 	beq	92d1c0 <loseLoop>
  92d1d0:	e8bd47f0 	pop	{r4, r5, r6, r7, r8, r9, sl, lr}
  92d1d4:	e12fff1e 	bx	lr

0092d1d8 <winner>:
  92d1d8:	e92d47f0 	push	{r4, r5, r6, r7, r8, r9, sl, lr}
  92d1dc:	e59f20d0 	ldr	r2, [pc, #208]	; 92d2b4 <breakLoop+0x1c>
  92d1e0:	ebfffeca 	bl	92cd10 <changeBackground>

0092d1e4 <winLoop>:
  92d1e4:	eb0000ba 	bl	92d4d4 <Snes>
  92d1e8:	e1a04000 	mov	r4, r0
  92d1ec:	e3540000 	cmp	r4, #0
  92d1f0:	0afffffb 	beq	92d1e4 <winLoop>
  92d1f4:	e8bd47f0 	pop	{r4, r5, r6, r7, r8, r9, sl, lr}
  92d1f8:	e12fff1e 	bx	lr

0092d1fc <pauseMenu>:
  92d1fc:	e92d47f0 	push	{r4, r5, r6, r7, r8, r9, sl, lr}
  92d200:	ebfffe64 	bl	92cb98 <disableInterrupt>

0092d204 <printPauseBox>:
  92d204:	e3a00d07 	mov	r0, #448	; 0x1c0
  92d208:	e3a01e12 	mov	r1, #288	; 0x120
  92d20c:	e59f20a4 	ldr	r2, [pc, #164]	; 92d2b8 <breakLoop+0x20>
  92d210:	eb000098 	bl	92d478 <DrawPause>
  92d214:	e59f00a0 	ldr	r0, [pc, #160]	; 92d2bc <breakLoop+0x24>
  92d218:	eb00010a 	bl	92d648 <Wait>

0092d21c <restartLoop>:
  92d21c:	eb0000ac 	bl	92d4d4 <Snes>
  92d220:	e1a04000 	mov	r4, r0
  92d224:	e3540006 	cmp	r4, #6
  92d228:	0a000007 	beq	92d24c <quitPM>
  92d22c:	e3540009 	cmp	r4, #9
  92d230:	03a00000 	moveq	r0, #0
  92d234:	0a000017 	beq	92d298 <breakLoop>
  92d238:	e3540004 	cmp	r4, #4
  92d23c:	0a000014 	beq	92d294 <resume>
  92d240:	e59f0078 	ldr	r0, [pc, #120]	; 92d2c0 <breakLoop+0x28>
  92d244:	eb0000ff 	bl	92d648 <Wait>
  92d248:	eafffff3 	b	92d21c <restartLoop>

0092d24c <quitPM>:
  92d24c:	e3a00d07 	mov	r0, #448	; 0x1c0
  92d250:	e3a01e12 	mov	r1, #288	; 0x120
  92d254:	e59f2068 	ldr	r2, [pc, #104]	; 92d2c4 <breakLoop+0x2c>
  92d258:	eb000086 	bl	92d478 <DrawPause>
  92d25c:	e59f0058 	ldr	r0, [pc, #88]	; 92d2bc <breakLoop+0x24>
  92d260:	eb0000f8 	bl	92d648 <Wait>

0092d264 <quitLoop>:
  92d264:	eb00009a 	bl	92d4d4 <Snes>
  92d268:	e1a04000 	mov	r4, r0
  92d26c:	e3540005 	cmp	r4, #5
  92d270:	0affffe3 	beq	92d204 <printPauseBox>
  92d274:	e3540009 	cmp	r4, #9
  92d278:	03a00001 	moveq	r0, #1
  92d27c:	0a000005 	beq	92d298 <breakLoop>
  92d280:	e3540004 	cmp	r4, #4
  92d284:	0a000002 	beq	92d294 <resume>
  92d288:	e59f0030 	ldr	r0, [pc, #48]	; 92d2c0 <breakLoop+0x28>
  92d28c:	eb0000ed 	bl	92d648 <Wait>
  92d290:	eafffff3 	b	92d264 <quitLoop>

0092d294 <resume>:
  92d294:	e3a00002 	mov	r0, #2

0092d298 <breakLoop>:
  92d298:	e8bd47f0 	pop	{r4, r5, r6, r7, r8, r9, sl, lr}
  92d29c:	e12fff1e 	bx	lr
  92d2a0:	00311144 	.word	0x00311144
  92d2a4:	00491144 	.word	0x00491144
  92d2a8:	00191144 	.word	0x00191144
  92d2ac:	0062196c 	.word	0x0062196c
  92d2b0:	00011144 	.word	0x00011144
  92d2b4:	007ac16c 	.word	0x007ac16c
  92d2b8:	0061616c 	.word	0x0061616c
  92d2bc:	00030d40 	.word	0x00030d40
  92d2c0:	000186a0 	.word	0x000186a0
  92d2c4:	0061b16c 	.word	0x0061b16c

0092d2c8 <DrawPixel>:
  92d2c8:	e92d47f0 	push	{r4, r5, r6, r7, r8, r9, sl, lr}
  92d2cc:	e0804501 	add	r4, r0, r1, lsl #10
  92d2d0:	e1a04084 	lsl	r4, r4, #1
  92d2d4:	e59f01f0 	ldr	r0, [pc, #496]	; 92d4cc <topU+0x3c>
  92d2d8:	e5900000 	ldr	r0, [r0]
  92d2dc:	e18020b4 	strh	r2, [r0, r4]
  92d2e0:	e8bd47f0 	pop	{r4, r5, r6, r7, r8, r9, sl, lr}
  92d2e4:	e12fff1e 	bx	lr

0092d2e8 <CheckPixel>:
  92d2e8:	e92d47f0 	push	{r4, r5, r6, r7, r8, r9, sl, lr}
  92d2ec:	e0804501 	add	r4, r0, r1, lsl #10
  92d2f0:	e1a04084 	lsl	r4, r4, #1
  92d2f4:	e59f01d0 	ldr	r0, [pc, #464]	; 92d4cc <topU+0x3c>
  92d2f8:	e5900000 	ldr	r0, [r0]
  92d2fc:	e19020b4 	ldrh	r2, [r0, r4]
  92d300:	e1a00002 	mov	r0, r2
  92d304:	e8bd47f0 	pop	{r4, r5, r6, r7, r8, r9, sl, lr}
  92d308:	e12fff1e 	bx	lr

0092d30c <DrawPhoto>:
  92d30c:	e92d47f0 	push	{r4, r5, r6, r7, r8, r9, sl, lr}
  92d310:	e1a05000 	mov	r5, r0
  92d314:	e1a06001 	mov	r6, r1
  92d318:	e1a08002 	mov	r8, r2
  92d31c:	e3a07000 	mov	r7, #0

0092d320 <init>:
  92d320:	e3a04000 	mov	r4, #0

0092d324 <top>:
  92d324:	e1a00005 	mov	r0, r5
  92d328:	e1a01006 	mov	r1, r6
  92d32c:	e4982002 	ldr	r2, [r8], #2
  92d330:	ebffffe4 	bl	92d2c8 <DrawPixel>
  92d334:	e2844001 	add	r4, r4, #1
  92d338:	e2855001 	add	r5, r5, #1
  92d33c:	e3540020 	cmp	r4, #32
  92d340:	1afffff7 	bne	92d324 <top>
  92d344:	e2866001 	add	r6, r6, #1
  92d348:	e2877001 	add	r7, r7, #1
  92d34c:	e3570020 	cmp	r7, #32
  92d350:	e2455020 	sub	r5, r5, #32
  92d354:	1afffff1 	bne	92d320 <init>
  92d358:	e8bd47f0 	pop	{r4, r5, r6, r7, r8, r9, sl, lr}
  92d35c:	e12fff1e 	bx	lr

0092d360 <checkForPhoto>:
  92d360:	e92d47f0 	push	{r4, r5, r6, r7, r8, r9, sl, lr}
  92d364:	e1a05000 	mov	r5, r0
  92d368:	e1a06001 	mov	r6, r1
  92d36c:	e1a08002 	mov	r8, r2
  92d370:	e3a07000 	mov	r7, #0

0092d374 <initP>:
  92d374:	e3a04000 	mov	r4, #0

0092d378 <topP>:
  92d378:	e1a00005 	mov	r0, r5
  92d37c:	e1a01006 	mov	r1, r6
  92d380:	e0d890b2 	ldrh	r9, [r8], #2
  92d384:	ebffffd7 	bl	92d2e8 <CheckPixel>
  92d388:	e1500009 	cmp	r0, r9
  92d38c:	13a00001 	movne	r0, #1
  92d390:	1a000009 	bne	92d3bc <finishP>
  92d394:	e2844001 	add	r4, r4, #1
  92d398:	e2855001 	add	r5, r5, #1
  92d39c:	e3540020 	cmp	r4, #32
  92d3a0:	1afffff4 	bne	92d378 <topP>
  92d3a4:	e2866001 	add	r6, r6, #1
  92d3a8:	e2877001 	add	r7, r7, #1
  92d3ac:	e3570020 	cmp	r7, #32
  92d3b0:	e2455020 	sub	r5, r5, #32
  92d3b4:	1affffee 	bne	92d374 <initP>
  92d3b8:	e3a00000 	mov	r0, #0

0092d3bc <finishP>:
  92d3bc:	e8bd47f0 	pop	{r4, r5, r6, r7, r8, r9, sl, lr}
  92d3c0:	e12fff1e 	bx	lr

0092d3c4 <DrawBox>:
  92d3c4:	e92d47f0 	push	{r4, r5, r6, r7, r8, r9, sl, lr}
  92d3c8:	e1a05000 	mov	r5, r0
  92d3cc:	e1a06001 	mov	r6, r1
  92d3d0:	e1a08002 	mov	r8, r2
  92d3d4:	e3a07000 	mov	r7, #0

0092d3d8 <init1>:
  92d3d8:	e3a04000 	mov	r4, #0

0092d3dc <top1>:
  92d3dc:	e1a00005 	mov	r0, r5
  92d3e0:	e1a01006 	mov	r1, r6
  92d3e4:	e1a02008 	mov	r2, r8
  92d3e8:	ebffffb6 	bl	92d2c8 <DrawPixel>
  92d3ec:	e2844001 	add	r4, r4, #1
  92d3f0:	e2855001 	add	r5, r5, #1
  92d3f4:	e3540020 	cmp	r4, #32
  92d3f8:	1afffff7 	bne	92d3dc <top1>
  92d3fc:	e2866001 	add	r6, r6, #1
  92d400:	e2877001 	add	r7, r7, #1
  92d404:	e3570020 	cmp	r7, #32
  92d408:	e2455020 	sub	r5, r5, #32
  92d40c:	1afffff1 	bne	92d3d8 <init1>
  92d410:	e8bd47f0 	pop	{r4, r5, r6, r7, r8, r9, sl, lr}
  92d414:	e12fff1e 	bx	lr

0092d418 <CheckBox>:
  92d418:	e92d47f0 	push	{r4, r5, r6, r7, r8, r9, sl, lr}
  92d41c:	e1a05000 	mov	r5, r0
  92d420:	e1a06001 	mov	r6, r1
  92d424:	e3a07000 	mov	r7, #0
  92d428:	e59f90a0 	ldr	r9, [pc, #160]	; 92d4d0 <topU+0x40>

0092d42c <topC>:
  92d42c:	e3a04000 	mov	r4, #0

0092d430 <botC>:
  92d430:	e1a00005 	mov	r0, r5
  92d434:	e1a01006 	mov	r1, r6
  92d438:	ebffffaa 	bl	92d2e8 <CheckPixel>
  92d43c:	e1500009 	cmp	r0, r9
  92d440:	13a00001 	movne	r0, #1
  92d444:	1a000009 	bne	92d470 <false>
  92d448:	e2844001 	add	r4, r4, #1
  92d44c:	e2855001 	add	r5, r5, #1
  92d450:	e3540020 	cmp	r4, #32
  92d454:	1afffff5 	bne	92d430 <botC>
  92d458:	e2866001 	add	r6, r6, #1
  92d45c:	e2877001 	add	r7, r7, #1
  92d460:	e3570020 	cmp	r7, #32
  92d464:	e2455020 	sub	r5, r5, #32
  92d468:	1affffef 	bne	92d42c <topC>
  92d46c:	e3a00000 	mov	r0, #0

0092d470 <false>:
  92d470:	e8bd47f0 	pop	{r4, r5, r6, r7, r8, r9, sl, lr}
  92d474:	e12fff1e 	bx	lr

0092d478 <DrawPause>:
  92d478:	e92d47f0 	push	{r4, r5, r6, r7, r8, r9, sl, lr}
  92d47c:	e1a05000 	mov	r5, r0
  92d480:	e1a06001 	mov	r6, r1
  92d484:	e1a08002 	mov	r8, r2
  92d488:	e3a07000 	mov	r7, #0

0092d48c <initU>:
  92d48c:	e3a04000 	mov	r4, #0

0092d490 <topU>:
  92d490:	e1a00005 	mov	r0, r5
  92d494:	e1a01006 	mov	r1, r6
  92d498:	e4982002 	ldr	r2, [r8], #2
  92d49c:	ebffff89 	bl	92d2c8 <DrawPixel>
  92d4a0:	e2844001 	add	r4, r4, #1
  92d4a4:	e2855001 	add	r5, r5, #1
  92d4a8:	e35400a0 	cmp	r4, #160	; 0xa0
  92d4ac:	1afffff7 	bne	92d490 <topU>
  92d4b0:	e2866001 	add	r6, r6, #1
  92d4b4:	e2877001 	add	r7, r7, #1
  92d4b8:	e3570040 	cmp	r7, #64	; 0x40
  92d4bc:	e24550a0 	sub	r5, r5, #160	; 0xa0
  92d4c0:	1afffff1 	bne	92d48c <initU>
  92d4c4:	e8bd47f0 	pop	{r4, r5, r6, r7, r8, r9, sl, lr}
  92d4c8:	e12fff1e 	bx	lr
  92d4cc:	000090b0 	.word	0x000090b0
  92d4d0:	000097ff 	.word	0x000097ff

0092d4d4 <Snes>:
  92d4d4:	e92d47f0 	push	{r4, r5, r6, r7, r8, r9, sl, lr}
  92d4d8:	eb000004 	bl	92d4f0 <Read_SNES>
  92d4dc:	e1a06000 	mov	r6, r0
  92d4e0:	e1a00006 	mov	r0, r6
  92d4e4:	eb000060 	bl	92d66c <BtoD>
  92d4e8:	e8bd47f0 	pop	{r4, r5, r6, r7, r8, r9, sl, lr}
  92d4ec:	e12fff1e 	bx	lr

0092d4f0 <Read_SNES>:
  92d4f0:	e92d47f0 	push	{r4, r5, r6, r7, r8, r9, sl, lr}
  92d4f4:	e3a01001 	mov	r1, #1
  92d4f8:	e3a0000b 	mov	r0, #11
  92d4fc:	eb000021 	bl	92d588 <Init_GPIO>
  92d500:	e3a01000 	mov	r1, #0
  92d504:	e3a0000a 	mov	r0, #10
  92d508:	eb00001e 	bl	92d588 <Init_GPIO>
  92d50c:	e3a01001 	mov	r1, #1
  92d510:	e3a00009 	mov	r0, #9
  92d514:	eb00001b 	bl	92d588 <Init_GPIO>
  92d518:	e3a0a000 	mov	sl, #0
  92d51c:	e3a09000 	mov	r9, #0
  92d520:	e3a00001 	mov	r0, #1
  92d524:	eb000033 	bl	92d5f8 <Write_Clock>
  92d528:	e3a00001 	mov	r0, #1
  92d52c:	eb000028 	bl	92d5d4 <Write_Latch>
  92d530:	e3a0000c 	mov	r0, #12
  92d534:	eb000043 	bl	92d648 <Wait>
  92d538:	e3a00000 	mov	r0, #0
  92d53c:	eb000024 	bl	92d5d4 <Write_Latch>

0092d540 <snesLoop>:
  92d540:	e35a0010 	cmp	sl, #16
  92d544:	aa00000c 	bge	92d57c <end>
  92d548:	e3a00006 	mov	r0, #6
  92d54c:	eb00003d 	bl	92d648 <Wait>
  92d550:	e3a00000 	mov	r0, #0
  92d554:	eb000027 	bl	92d5f8 <Write_Clock>
  92d558:	e3a00006 	mov	r0, #6
  92d55c:	eb000039 	bl	92d648 <Wait>
  92d560:	eb00002d 	bl	92d61c <Read_Data>
  92d564:	e1a00a10 	lsl	r0, r0, sl
  92d568:	e1899000 	orr	r9, r9, r0
  92d56c:	e3a00001 	mov	r0, #1
  92d570:	eb000020 	bl	92d5f8 <Write_Clock>
  92d574:	e28aa001 	add	sl, sl, #1
  92d578:	eafffff0 	b	92d540 <snesLoop>

0092d57c <end>:
  92d57c:	e1a00009 	mov	r0, r9
  92d580:	e8bd47f0 	pop	{r4, r5, r6, r7, r8, r9, sl, lr}
  92d584:	e1a0f00e 	mov	pc, lr

0092d588 <Init_GPIO>:
  92d588:	e92d47f0 	push	{r4, r5, r6, r7, r8, r9, sl, lr}
  92d58c:	e1a04001 	mov	r4, r1
  92d590:	e1a01000 	mov	r1, r0
  92d594:	e59f0124 	ldr	r0, [pc, #292]	; 92d6c0 <done1+0xc>

0092d598 <init_loop>:
  92d598:	e3510009 	cmp	r1, #9
  92d59c:	8241100a 	subhi	r1, r1, #10
  92d5a0:	82800004 	addhi	r0, r0, #4
  92d5a4:	8afffffb 	bhi	92d598 <init_loop>
  92d5a8:	e590a000 	ldr	sl, [r0]
  92d5ac:	e3a09003 	mov	r9, #3
  92d5b0:	e0010199 	mul	r1, r9, r1
  92d5b4:	e3a08007 	mov	r8, #7
  92d5b8:	e1a08118 	lsl	r8, r8, r1
  92d5bc:	e1a04114 	lsl	r4, r4, r1
  92d5c0:	e1caa008 	bic	sl, sl, r8
  92d5c4:	e18aa004 	orr	sl, sl, r4
  92d5c8:	e580a000 	str	sl, [r0]
  92d5cc:	e8bd47f0 	pop	{r4, r5, r6, r7, r8, r9, sl, lr}
  92d5d0:	e1a0f00e 	mov	pc, lr

0092d5d4 <Write_Latch>:
  92d5d4:	e92d47f0 	push	{r4, r5, r6, r7, r8, r9, sl, lr}
  92d5d8:	e59f20e0 	ldr	r2, [pc, #224]	; 92d6c0 <done1+0xc>
  92d5dc:	e3a03001 	mov	r3, #1
  92d5e0:	e1a03483 	lsl	r3, r3, #9
  92d5e4:	e3300000 	teq	r0, #0
  92d5e8:	05823028 	streq	r3, [r2, #40]	; 0x28
  92d5ec:	1582301c 	strne	r3, [r2, #28]
  92d5f0:	e8bd47f0 	pop	{r4, r5, r6, r7, r8, r9, sl, lr}
  92d5f4:	e1a0f00e 	mov	pc, lr

0092d5f8 <Write_Clock>:
  92d5f8:	e92d47f0 	push	{r4, r5, r6, r7, r8, r9, sl, lr}
  92d5fc:	e59f20bc 	ldr	r2, [pc, #188]	; 92d6c0 <done1+0xc>
  92d600:	e3a03001 	mov	r3, #1
  92d604:	e1a03583 	lsl	r3, r3, #11
  92d608:	e3300000 	teq	r0, #0
  92d60c:	05823028 	streq	r3, [r2, #40]	; 0x28
  92d610:	1582301c 	strne	r3, [r2, #28]
  92d614:	e8bd47f0 	pop	{r4, r5, r6, r7, r8, r9, sl, lr}
  92d618:	e1a0f00e 	mov	pc, lr

0092d61c <Read_Data>:
  92d61c:	e92d47f0 	push	{r4, r5, r6, r7, r8, r9, sl, lr}
  92d620:	e59f2098 	ldr	r2, [pc, #152]	; 92d6c0 <done1+0xc>
  92d624:	e5921034 	ldr	r1, [r2, #52]	; 0x34
  92d628:	e3a03001 	mov	r3, #1
  92d62c:	e1a03503 	lsl	r3, r3, #10
  92d630:	e0011003 	and	r1, r1, r3
  92d634:	e3310000 	teq	r1, #0
  92d638:	03a00000 	moveq	r0, #0
  92d63c:	13a00001 	movne	r0, #1
  92d640:	e8bd47f0 	pop	{r4, r5, r6, r7, r8, r9, sl, lr}
  92d644:	e1a0f00e 	mov	pc, lr

0092d648 <Wait>:
  92d648:	e92d47f0 	push	{r4, r5, r6, r7, r8, r9, sl, lr}
  92d64c:	e59f2070 	ldr	r2, [pc, #112]	; 92d6c4 <done1+0x10>
  92d650:	e5921000 	ldr	r1, [r2]
  92d654:	e0811000 	add	r1, r1, r0

0092d658 <delayLoop>:
  92d658:	e5920000 	ldr	r0, [r2]
  92d65c:	e1510000 	cmp	r1, r0
  92d660:	cafffffc 	bgt	92d658 <delayLoop>
  92d664:	e8bd47f0 	pop	{r4, r5, r6, r7, r8, r9, sl, lr}
  92d668:	e1a0f00e 	mov	pc, lr

0092d66c <BtoD>:
  92d66c:	e92d47f0 	push	{r4, r5, r6, r7, r8, r9, sl, lr}
  92d670:	e1a06000 	mov	r6, r0
  92d674:	e3a05001 	mov	r5, #1
  92d678:	e59f4048 	ldr	r4, [pc, #72]	; 92d6c8 <done1+0x14>
  92d67c:	e0244006 	eor	r4, r4, r6
  92d680:	e3a03000 	mov	r3, #0

0092d684 <buttonLoop>:
  92d684:	e3a05001 	mov	r5, #1
  92d688:	e353000b 	cmp	r3, #11
  92d68c:	03a03000 	moveq	r3, #0
  92d690:	0a000007 	beq	92d6b4 <done1>
  92d694:	e1a05315 	lsl	r5, r5, r3
  92d698:	e0047005 	and	r7, r4, r5
  92d69c:	e3570000 	cmp	r7, #0
  92d6a0:	0a000000 	beq	92d6a8 <next>
  92d6a4:	1a000001 	bne	92d6b0 <doneLoop>

0092d6a8 <next>:
  92d6a8:	e2833001 	add	r3, r3, #1
  92d6ac:	eafffff4 	b	92d684 <buttonLoop>

0092d6b0 <doneLoop>:
  92d6b0:	e2833001 	add	r3, r3, #1

0092d6b4 <done1>:
  92d6b4:	e1a00003 	mov	r0, r3
  92d6b8:	e8bd47f0 	pop	{r4, r5, r6, r7, r8, r9, sl, lr}
  92d6bc:	e1a0f00e 	mov	pc, lr
  92d6c0:	20200000 	.word	0x20200000
  92d6c4:	20003004 	.word	0x20003004
  92d6c8:	0000ffff 	.word	0x0000ffff

0092d6cc <candyThief>:
  92d6cc:	e92d47f0 	push	{r4, r5, r6, r7, r8, r9, sl, lr}
  92d6d0:	ebfffb63 	bl	92c464 <getScore>
  92d6d4:	e3a01002 	mov	r1, #2
  92d6d8:	ebfffb0f 	bl	92c31c <division>
  92d6dc:	e1a00002 	mov	r0, r2
  92d6e0:	ebfffb5a 	bl	92c450 <updateScore>
  92d6e4:	ebfffb2e 	bl	92c3a4 <printCandyLives>
  92d6e8:	e8bd47f0 	pop	{r4, r5, r6, r7, r8, r9, sl, lr}
  92d6ec:	e12fff1e 	bx	lr

0092d6f0 <candyThiefIcon>:
  92d6f0:	e92d47f0 	push	{r4, r5, r6, r7, r8, r9, sl, lr}
  92d6f4:	e3a00c03 	mov	r0, #768	; 0x300
  92d6f8:	e3a01d0b 	mov	r1, #704	; 0x2c0
  92d6fc:	e59f2224 	ldr	r2, [pc, #548]	; 92d928 <lifeSaverIcon+0x5c>
  92d700:	ebffff01 	bl	92d30c <DrawPhoto>
  92d704:	e3a00e32 	mov	r0, #800	; 0x320
  92d708:	e3a01d0b 	mov	r1, #704	; 0x2c0
  92d70c:	e59f2218 	ldr	r2, [pc, #536]	; 92d92c <lifeSaverIcon+0x60>
  92d710:	ebfffefd 	bl	92d30c <DrawPhoto>
  92d714:	e3a00d0d 	mov	r0, #832	; 0x340
  92d718:	e3a01d0b 	mov	r1, #704	; 0x2c0
  92d71c:	e59f220c 	ldr	r2, [pc, #524]	; 92d930 <lifeSaverIcon+0x64>
  92d720:	ebfffef9 	bl	92d30c <DrawPhoto>
  92d724:	e3a00e36 	mov	r0, #864	; 0x360
  92d728:	e3a01d0b 	mov	r1, #704	; 0x2c0
  92d72c:	e59f2200 	ldr	r2, [pc, #512]	; 92d934 <lifeSaverIcon+0x68>
  92d730:	ebfffef5 	bl	92d30c <DrawPhoto>
  92d734:	e3a00d0e 	mov	r0, #896	; 0x380
  92d738:	e3a01d0b 	mov	r1, #704	; 0x2c0
  92d73c:	e59f21f4 	ldr	r2, [pc, #500]	; 92d938 <lifeSaverIcon+0x6c>
  92d740:	ebfffef1 	bl	92d30c <DrawPhoto>
  92d744:	e8bd47f0 	pop	{r4, r5, r6, r7, r8, r9, sl, lr}
  92d748:	e12fff1e 	bx	lr

0092d74c <candyBonanza>:
  92d74c:	e92d47f0 	push	{r4, r5, r6, r7, r8, r9, sl, lr}
  92d750:	e59f01e4 	ldr	r0, [pc, #484]	; 92d93c <lifeSaverIcon+0x70>
  92d754:	ebfffb00 	bl	92c35c <r0ndomPhoto>
  92d758:	e59f01dc 	ldr	r0, [pc, #476]	; 92d93c <lifeSaverIcon+0x70>
  92d75c:	ebfffafe 	bl	92c35c <r0ndomPhoto>
  92d760:	e59f01d4 	ldr	r0, [pc, #468]	; 92d93c <lifeSaverIcon+0x70>
  92d764:	ebfffafc 	bl	92c35c <r0ndomPhoto>
  92d768:	e59f01cc 	ldr	r0, [pc, #460]	; 92d93c <lifeSaverIcon+0x70>
  92d76c:	ebfffafa 	bl	92c35c <r0ndomPhoto>
  92d770:	e8bd47f0 	pop	{r4, r5, r6, r7, r8, r9, sl, lr}
  92d774:	e12fff1e 	bx	lr

0092d778 <pickValuePack>:
  92d778:	e92d47f0 	push	{r4, r5, r6, r7, r8, r9, sl, lr}
  92d77c:	e59f21bc 	ldr	r2, [pc, #444]	; 92d940 <lifeSaverIcon+0x74>
  92d780:	e5924000 	ldr	r4, [r2]
  92d784:	e3a05004 	mov	r5, #4
  92d788:	e1a00004 	mov	r0, r4
  92d78c:	e1a01005 	mov	r1, r5
  92d790:	ebfffae1 	bl	92c31c <division>
  92d794:	e2800001 	add	r0, r0, #1
  92d798:	e3500001 	cmp	r0, #1
  92d79c:	1a000003 	bne	92d7b0 <checkBonanza>
  92d7a0:	ebffffc9 	bl	92d6cc <candyThief>
  92d7a4:	ebffffd1 	bl	92d6f0 <candyThiefIcon>
  92d7a8:	e3a00001 	mov	r0, #1
  92d7ac:	ea000016 	b	92d80c <doneValuePack>

0092d7b0 <checkBonanza>:
  92d7b0:	e3500002 	cmp	r0, #2
  92d7b4:	1a000006 	bne	92d7d4 <checkEmpty>
  92d7b8:	ebffffe3 	bl	92d74c <candyBonanza>
  92d7bc:	eb00002b 	bl	92d870 <candyBonanzaIcon>
  92d7c0:	e3a01004 	mov	r1, #4
  92d7c4:	e59f0178 	ldr	r0, [pc, #376]	; 92d944 <lifeSaverIcon+0x78>
  92d7c8:	e5801000 	str	r1, [r0]
  92d7cc:	e3a00000 	mov	r0, #0
  92d7d0:	ea00000d 	b	92d80c <doneValuePack>

0092d7d4 <checkEmpty>:
  92d7d4:	e3500003 	cmp	r0, #3
  92d7d8:	1a000002 	bne	92d7e8 <checkLifeSaver>
  92d7dc:	eb00000c 	bl	92d814 <emptyIcon>
  92d7e0:	e3a00000 	mov	r0, #0
  92d7e4:	ea000008 	b	92d80c <doneValuePack>

0092d7e8 <checkLifeSaver>:
  92d7e8:	e3500004 	cmp	r0, #4
  92d7ec:	1a000006 	bne	92d80c <doneValuePack>
  92d7f0:	e59f0150 	ldr	r0, [pc, #336]	; 92d948 <lifeSaverIcon+0x7c>
  92d7f4:	e5901000 	ldr	r1, [r0]
  92d7f8:	e2811001 	add	r1, r1, #1
  92d7fc:	e5801000 	str	r1, [r0]
  92d800:	ebfffaf0 	bl	92c3c8 <printSnakeLives>
  92d804:	eb000030 	bl	92d8cc <lifeSaverIcon>
  92d808:	e3a00000 	mov	r0, #0

0092d80c <doneValuePack>:
  92d80c:	e8bd47f0 	pop	{r4, r5, r6, r7, r8, r9, sl, lr}
  92d810:	e12fff1e 	bx	lr

0092d814 <emptyIcon>:
  92d814:	e92d47f0 	push	{r4, r5, r6, r7, r8, r9, sl, lr}
  92d818:	e3a00c03 	mov	r0, #768	; 0x300
  92d81c:	e3a01d0b 	mov	r1, #704	; 0x2c0
  92d820:	e59f2124 	ldr	r2, [pc, #292]	; 92d94c <lifeSaverIcon+0x80>
  92d824:	ebfffeb8 	bl	92d30c <DrawPhoto>
  92d828:	e3a00e32 	mov	r0, #800	; 0x320
  92d82c:	e3a01d0b 	mov	r1, #704	; 0x2c0
  92d830:	e59f2118 	ldr	r2, [pc, #280]	; 92d950 <lifeSaverIcon+0x84>
  92d834:	ebfffeb4 	bl	92d30c <DrawPhoto>
  92d838:	e3a00d0d 	mov	r0, #832	; 0x340
  92d83c:	e3a01d0b 	mov	r1, #704	; 0x2c0
  92d840:	e59f210c 	ldr	r2, [pc, #268]	; 92d954 <lifeSaverIcon+0x88>
  92d844:	ebfffeb0 	bl	92d30c <DrawPhoto>
  92d848:	e3a00e36 	mov	r0, #864	; 0x360
  92d84c:	e3a01d0b 	mov	r1, #704	; 0x2c0
  92d850:	e59f2100 	ldr	r2, [pc, #256]	; 92d958 <lifeSaverIcon+0x8c>
  92d854:	ebfffeac 	bl	92d30c <DrawPhoto>
  92d858:	e3a00d0e 	mov	r0, #896	; 0x380
  92d85c:	e3a01d0b 	mov	r1, #704	; 0x2c0
  92d860:	e59f20f4 	ldr	r2, [pc, #244]	; 92d95c <lifeSaverIcon+0x90>
  92d864:	ebfffea8 	bl	92d30c <DrawPhoto>
  92d868:	e8bd47f0 	pop	{r4, r5, r6, r7, r8, r9, sl, lr}
  92d86c:	e12fff1e 	bx	lr

0092d870 <candyBonanzaIcon>:
  92d870:	e92d47f0 	push	{r4, r5, r6, r7, r8, r9, sl, lr}
  92d874:	e3a00c03 	mov	r0, #768	; 0x300
  92d878:	e3a01d0b 	mov	r1, #704	; 0x2c0
  92d87c:	e59f20dc 	ldr	r2, [pc, #220]	; 92d960 <lifeSaverIcon+0x94>
  92d880:	ebfffea1 	bl	92d30c <DrawPhoto>
  92d884:	e3a00e32 	mov	r0, #800	; 0x320
  92d888:	e3a01d0b 	mov	r1, #704	; 0x2c0
  92d88c:	e59f20d0 	ldr	r2, [pc, #208]	; 92d964 <lifeSaverIcon+0x98>
  92d890:	ebfffe9d 	bl	92d30c <DrawPhoto>
  92d894:	e3a00d0d 	mov	r0, #832	; 0x340
  92d898:	e3a01d0b 	mov	r1, #704	; 0x2c0
  92d89c:	e59f20c4 	ldr	r2, [pc, #196]	; 92d968 <lifeSaverIcon+0x9c>
  92d8a0:	ebfffe99 	bl	92d30c <DrawPhoto>
  92d8a4:	e3a00e36 	mov	r0, #864	; 0x360
  92d8a8:	e3a01d0b 	mov	r1, #704	; 0x2c0
  92d8ac:	e59f20b8 	ldr	r2, [pc, #184]	; 92d96c <lifeSaverIcon+0xa0>
  92d8b0:	ebfffe95 	bl	92d30c <DrawPhoto>
  92d8b4:	e3a00d0e 	mov	r0, #896	; 0x380
  92d8b8:	e3a01d0b 	mov	r1, #704	; 0x2c0
  92d8bc:	e59f20ac 	ldr	r2, [pc, #172]	; 92d970 <lifeSaverIcon+0xa4>
  92d8c0:	ebfffe91 	bl	92d30c <DrawPhoto>
  92d8c4:	e8bd47f0 	pop	{r4, r5, r6, r7, r8, r9, sl, lr}
  92d8c8:	e12fff1e 	bx	lr

0092d8cc <lifeSaverIcon>:
  92d8cc:	e92d47f0 	push	{r4, r5, r6, r7, r8, r9, sl, lr}
  92d8d0:	e3a00c03 	mov	r0, #768	; 0x300
  92d8d4:	e3a01d0b 	mov	r1, #704	; 0x2c0
  92d8d8:	e59f2094 	ldr	r2, [pc, #148]	; 92d974 <lifeSaverIcon+0xa8>
  92d8dc:	ebfffe8a 	bl	92d30c <DrawPhoto>
  92d8e0:	e3a00e32 	mov	r0, #800	; 0x320
  92d8e4:	e3a01d0b 	mov	r1, #704	; 0x2c0
  92d8e8:	e59f2088 	ldr	r2, [pc, #136]	; 92d978 <lifeSaverIcon+0xac>
  92d8ec:	ebfffe86 	bl	92d30c <DrawPhoto>
  92d8f0:	e3a00d0d 	mov	r0, #832	; 0x340
  92d8f4:	e3a01d0b 	mov	r1, #704	; 0x2c0
  92d8f8:	e59f207c 	ldr	r2, [pc, #124]	; 92d97c <lifeSaverIcon+0xb0>
  92d8fc:	ebfffe82 	bl	92d30c <DrawPhoto>
  92d900:	e3a00e36 	mov	r0, #864	; 0x360
  92d904:	e3a01d0b 	mov	r1, #704	; 0x2c0
  92d908:	e59f2070 	ldr	r2, [pc, #112]	; 92d980 <lifeSaverIcon+0xb4>
  92d90c:	ebfffe7e 	bl	92d30c <DrawPhoto>
  92d910:	e3a00d0e 	mov	r0, #896	; 0x380
  92d914:	e3a01d0b 	mov	r1, #704	; 0x2c0
  92d918:	e59f2064 	ldr	r2, [pc, #100]	; 92d984 <lifeSaverIcon+0xb8>
  92d91c:	ebfffe7a 	bl	92d30c <DrawPhoto>
  92d920:	e8bd47f0 	pop	{r4, r5, r6, r7, r8, r9, sl, lr}
  92d924:	e12fff1e 	bx	lr
  92d928:	007a216c 	.word	0x007a216c
  92d92c:	007a296c 	.word	0x007a296c
  92d930:	007a316c 	.word	0x007a316c
  92d934:	007a396c 	.word	0x007a396c
  92d938:	007a416c 	.word	0x007a416c
  92d93c:	00010944 	.word	0x00010944
  92d940:	20003004 	.word	0x20003004
  92d944:	000098bc 	.word	0x000098bc
  92d948:	000098c4 	.word	0x000098c4
  92d94c:	007a496c 	.word	0x007a496c
  92d950:	007a516c 	.word	0x007a516c
  92d954:	007a596c 	.word	0x007a596c
  92d958:	007a616c 	.word	0x007a616c
  92d95c:	007a696c 	.word	0x007a696c
  92d960:	007a716c 	.word	0x007a716c
  92d964:	007a796c 	.word	0x007a796c
  92d968:	007a816c 	.word	0x007a816c
  92d96c:	007a896c 	.word	0x007a896c
  92d970:	007a916c 	.word	0x007a916c
  92d974:	007a996c 	.word	0x007a996c
  92d978:	007aa16c 	.word	0x007aa16c
  92d97c:	007aa96c 	.word	0x007aa96c
  92d980:	007ab16c 	.word	0x007ab16c
  92d984:	007ab96c 	.word	0x007ab96c
